
W5500_Driver.elf:     file format elf32-littlearm

Sections:
Idx Name          Size      VMA       LMA       File off  Algn
  0 .isr_vector   000001a8  08000000  08000000  00010000  2**0
                  CONTENTS, ALLOC, LOAD, READONLY, DATA
  1 .text         0000197c  080001a8  080001a8  000101a8  2**2
                  CONTENTS, ALLOC, LOAD, READONLY, CODE
  2 .rodata       0000002c  08001b24  08001b24  00011b24  2**2
                  CONTENTS, ALLOC, LOAD, READONLY, DATA
  3 .ARM.extab    00000000  08001b50  08001b50  00020008  2**0
                  CONTENTS
  4 .ARM          00000000  08001b50  08001b50  00020008  2**0
                  CONTENTS
  5 .preinit_array 00000000  08001b50  08001b50  00020008  2**0
                  CONTENTS, ALLOC, LOAD, DATA
  6 .init_array   00000004  08001b50  08001b50  00011b50  2**2
                  CONTENTS, ALLOC, LOAD, DATA
  7 .fini_array   00000004  08001b54  08001b54  00011b54  2**2
                  CONTENTS, ALLOC, LOAD, DATA
  8 .data         00000008  20000000  08001b58  00020000  2**2
                  CONTENTS, ALLOC, LOAD, DATA
  9 .ccmram       00000000  10000000  10000000  00020008  2**0
                  CONTENTS
 10 .bss          00000078  20000008  20000008  00020008  2**2
                  ALLOC
 11 ._user_heap_stack 00000600  20000080  20000080  00020008  2**0
                  ALLOC
 12 .ARM.attributes 00000030  00000000  00000000  00020008  2**0
                  CONTENTS, READONLY
 13 .comment      00000043  00000000  00000000  00020038  2**0
                  CONTENTS, READONLY
 14 .debug_info   00009708  00000000  00000000  0002007b  2**0
                  CONTENTS, READONLY, DEBUGGING, OCTETS
 15 .debug_abbrev 00000d1a  00000000  00000000  00029783  2**0
                  CONTENTS, READONLY, DEBUGGING, OCTETS
 16 .debug_aranges 00000280  00000000  00000000  0002a4a0  2**3
                  CONTENTS, READONLY, DEBUGGING, OCTETS
 17 .debug_rnglists 00000208  00000000  00000000  0002a720  2**0
                  CONTENTS, READONLY, DEBUGGING, OCTETS
 18 .debug_macro  0001a371  00000000  00000000  0002a928  2**0
                  CONTENTS, READONLY, DEBUGGING, OCTETS
 19 .debug_line   00004808  00000000  00000000  00044c99  2**0
                  CONTENTS, READONLY, DEBUGGING, OCTETS
 20 .debug_str    0008f1cb  00000000  00000000  000494a1  2**0
                  CONTENTS, READONLY, DEBUGGING, OCTETS
 21 .debug_frame  00000898  00000000  00000000  000d866c  2**2
                  CONTENTS, READONLY, DEBUGGING, OCTETS
 22 .debug_line_str 0000004c  00000000  00000000  000d8f04  2**0
                  CONTENTS, READONLY, DEBUGGING, OCTETS

Disassembly of section .text:

080001a8 <__do_global_dtors_aux>:
 80001a8:	b510      	push	{r4, lr}
 80001aa:	4c05      	ldr	r4, [pc, #20]	; (80001c0 <__do_global_dtors_aux+0x18>)
 80001ac:	7823      	ldrb	r3, [r4, #0]
 80001ae:	b933      	cbnz	r3, 80001be <__do_global_dtors_aux+0x16>
 80001b0:	4b04      	ldr	r3, [pc, #16]	; (80001c4 <__do_global_dtors_aux+0x1c>)
 80001b2:	b113      	cbz	r3, 80001ba <__do_global_dtors_aux+0x12>
 80001b4:	4804      	ldr	r0, [pc, #16]	; (80001c8 <__do_global_dtors_aux+0x20>)
 80001b6:	f3af 8000 	nop.w
 80001ba:	2301      	movs	r3, #1
 80001bc:	7023      	strb	r3, [r4, #0]
 80001be:	bd10      	pop	{r4, pc}
 80001c0:	20000008 	.word	0x20000008
 80001c4:	00000000 	.word	0x00000000
 80001c8:	08001b0c 	.word	0x08001b0c

080001cc <frame_dummy>:
 80001cc:	b508      	push	{r3, lr}
 80001ce:	4b03      	ldr	r3, [pc, #12]	; (80001dc <frame_dummy+0x10>)
 80001d0:	b11b      	cbz	r3, 80001da <frame_dummy+0xe>
 80001d2:	4903      	ldr	r1, [pc, #12]	; (80001e0 <frame_dummy+0x14>)
 80001d4:	4803      	ldr	r0, [pc, #12]	; (80001e4 <frame_dummy+0x18>)
 80001d6:	f3af 8000 	nop.w
 80001da:	bd08      	pop	{r3, pc}
 80001dc:	00000000 	.word	0x00000000
 80001e0:	2000000c 	.word	0x2000000c
 80001e4:	08001b0c 	.word	0x08001b0c

080001e8 <GPIO_Pin_High>:


}

void GPIO_Pin_High(GPIO_TypeDef *Port, int pin)
{
 80001e8:	b480      	push	{r7}
 80001ea:	b083      	sub	sp, #12
 80001ec:	af00      	add	r7, sp, #0
 80001ee:	6078      	str	r0, [r7, #4]
 80001f0:	6039      	str	r1, [r7, #0]
	Port -> ODR = 1 << pin;
 80001f2:	2201      	movs	r2, #1
 80001f4:	683b      	ldr	r3, [r7, #0]
 80001f6:	fa02 f303 	lsl.w	r3, r2, r3
 80001fa:	461a      	mov	r2, r3
 80001fc:	687b      	ldr	r3, [r7, #4]
 80001fe:	615a      	str	r2, [r3, #20]
}
 8000200:	bf00      	nop
 8000202:	370c      	adds	r7, #12
 8000204:	46bd      	mov	sp, r7
 8000206:	f85d 7b04 	ldr.w	r7, [sp], #4
 800020a:	4770      	bx	lr

0800020c <GPIO_Pin_Low>:


void GPIO_Pin_Low(GPIO_TypeDef *Port, int pin)
{
 800020c:	b480      	push	{r7}
 800020e:	b083      	sub	sp, #12
 8000210:	af00      	add	r7, sp, #0
 8000212:	6078      	str	r0, [r7, #4]
 8000214:	6039      	str	r1, [r7, #0]
	Port -> ODR &= ~(1 << pin);
 8000216:	687b      	ldr	r3, [r7, #4]
 8000218:	695b      	ldr	r3, [r3, #20]
 800021a:	2101      	movs	r1, #1
 800021c:	683a      	ldr	r2, [r7, #0]
 800021e:	fa01 f202 	lsl.w	r2, r1, r2
 8000222:	43d2      	mvns	r2, r2
 8000224:	401a      	ands	r2, r3
 8000226:	687b      	ldr	r3, [r7, #4]
 8000228:	615a      	str	r2, [r3, #20]
}
 800022a:	bf00      	nop
 800022c:	370c      	adds	r7, #12
 800022e:	46bd      	mov	sp, r7
 8000230:	f85d 7b04 	ldr.w	r7, [sp], #4
 8000234:	4770      	bx	lr
	...

08000238 <GPIO_Clock_Enable>:

	return 1;
}

int GPIO_Clock_Enable(GPIO_TypeDef *PORT)
{
 8000238:	b480      	push	{r7}
 800023a:	b083      	sub	sp, #12
 800023c:	af00      	add	r7, sp, #0
 800023e:	6078      	str	r0, [r7, #4]
	if(PORT == GPIOA)
 8000240:	687b      	ldr	r3, [r7, #4]
 8000242:	4a25      	ldr	r2, [pc, #148]	; (80002d8 <GPIO_Clock_Enable+0xa0>)
 8000244:	4293      	cmp	r3, r2
 8000246:	d106      	bne.n	8000256 <GPIO_Clock_Enable+0x1e>
	{
		RCC -> AHB1ENR   |=  RCC_AHB1ENR_GPIOAEN;
 8000248:	4b24      	ldr	r3, [pc, #144]	; (80002dc <GPIO_Clock_Enable+0xa4>)
 800024a:	6b1b      	ldr	r3, [r3, #48]	; 0x30
 800024c:	4a23      	ldr	r2, [pc, #140]	; (80002dc <GPIO_Clock_Enable+0xa4>)
 800024e:	f043 0301 	orr.w	r3, r3, #1
 8000252:	6313      	str	r3, [r2, #48]	; 0x30
 8000254:	e039      	b.n	80002ca <GPIO_Clock_Enable+0x92>
	} else 	if(PORT == GPIOB)
 8000256:	687b      	ldr	r3, [r7, #4]
 8000258:	4a21      	ldr	r2, [pc, #132]	; (80002e0 <GPIO_Clock_Enable+0xa8>)
 800025a:	4293      	cmp	r3, r2
 800025c:	d106      	bne.n	800026c <GPIO_Clock_Enable+0x34>
	{
		RCC -> AHB1ENR   |=  RCC_AHB1ENR_GPIOBEN;
 800025e:	4b1f      	ldr	r3, [pc, #124]	; (80002dc <GPIO_Clock_Enable+0xa4>)
 8000260:	6b1b      	ldr	r3, [r3, #48]	; 0x30
 8000262:	4a1e      	ldr	r2, [pc, #120]	; (80002dc <GPIO_Clock_Enable+0xa4>)
 8000264:	f043 0302 	orr.w	r3, r3, #2
 8000268:	6313      	str	r3, [r2, #48]	; 0x30
 800026a:	e02e      	b.n	80002ca <GPIO_Clock_Enable+0x92>
	}else 	if(PORT == GPIOC)
 800026c:	687b      	ldr	r3, [r7, #4]
 800026e:	4a1d      	ldr	r2, [pc, #116]	; (80002e4 <GPIO_Clock_Enable+0xac>)
 8000270:	4293      	cmp	r3, r2
 8000272:	d106      	bne.n	8000282 <GPIO_Clock_Enable+0x4a>
	{
		RCC -> AHB1ENR   |=  RCC_AHB1ENR_GPIOCEN;
 8000274:	4b19      	ldr	r3, [pc, #100]	; (80002dc <GPIO_Clock_Enable+0xa4>)
 8000276:	6b1b      	ldr	r3, [r3, #48]	; 0x30
 8000278:	4a18      	ldr	r2, [pc, #96]	; (80002dc <GPIO_Clock_Enable+0xa4>)
 800027a:	f043 0304 	orr.w	r3, r3, #4
 800027e:	6313      	str	r3, [r2, #48]	; 0x30
 8000280:	e023      	b.n	80002ca <GPIO_Clock_Enable+0x92>
	}else 	if(PORT == GPIOD)
 8000282:	687b      	ldr	r3, [r7, #4]
 8000284:	4a18      	ldr	r2, [pc, #96]	; (80002e8 <GPIO_Clock_Enable+0xb0>)
 8000286:	4293      	cmp	r3, r2
 8000288:	d106      	bne.n	8000298 <GPIO_Clock_Enable+0x60>
	{
		RCC -> AHB1ENR   |=  RCC_AHB1ENR_GPIODEN;
 800028a:	4b14      	ldr	r3, [pc, #80]	; (80002dc <GPIO_Clock_Enable+0xa4>)
 800028c:	6b1b      	ldr	r3, [r3, #48]	; 0x30
 800028e:	4a13      	ldr	r2, [pc, #76]	; (80002dc <GPIO_Clock_Enable+0xa4>)
 8000290:	f043 0308 	orr.w	r3, r3, #8
 8000294:	6313      	str	r3, [r2, #48]	; 0x30
 8000296:	e018      	b.n	80002ca <GPIO_Clock_Enable+0x92>
	}else 	if(PORT == GPIOE)
 8000298:	687b      	ldr	r3, [r7, #4]
 800029a:	4a14      	ldr	r2, [pc, #80]	; (80002ec <GPIO_Clock_Enable+0xb4>)
 800029c:	4293      	cmp	r3, r2
 800029e:	d106      	bne.n	80002ae <GPIO_Clock_Enable+0x76>
	{
		RCC -> AHB1ENR   |=  RCC_AHB1ENR_GPIOEEN;
 80002a0:	4b0e      	ldr	r3, [pc, #56]	; (80002dc <GPIO_Clock_Enable+0xa4>)
 80002a2:	6b1b      	ldr	r3, [r3, #48]	; 0x30
 80002a4:	4a0d      	ldr	r2, [pc, #52]	; (80002dc <GPIO_Clock_Enable+0xa4>)
 80002a6:	f043 0310 	orr.w	r3, r3, #16
 80002aa:	6313      	str	r3, [r2, #48]	; 0x30
 80002ac:	e00d      	b.n	80002ca <GPIO_Clock_Enable+0x92>
	}else 	if(PORT == GPIOH)
 80002ae:	687b      	ldr	r3, [r7, #4]
 80002b0:	4a0f      	ldr	r2, [pc, #60]	; (80002f0 <GPIO_Clock_Enable+0xb8>)
 80002b2:	4293      	cmp	r3, r2
 80002b4:	d106      	bne.n	80002c4 <GPIO_Clock_Enable+0x8c>
	{
		RCC -> AHB1ENR   |=  RCC_AHB1ENR_GPIOHEN;
 80002b6:	4b09      	ldr	r3, [pc, #36]	; (80002dc <GPIO_Clock_Enable+0xa4>)
 80002b8:	6b1b      	ldr	r3, [r3, #48]	; 0x30
 80002ba:	4a08      	ldr	r2, [pc, #32]	; (80002dc <GPIO_Clock_Enable+0xa4>)
 80002bc:	f043 0380 	orr.w	r3, r3, #128	; 0x80
 80002c0:	6313      	str	r3, [r2, #48]	; 0x30
 80002c2:	e002      	b.n	80002ca <GPIO_Clock_Enable+0x92>
	}else
	{
		return -1;
 80002c4:	f04f 33ff 	mov.w	r3, #4294967295
 80002c8:	e000      	b.n	80002cc <GPIO_Clock_Enable+0x94>
	}

	return 1;
 80002ca:	2301      	movs	r3, #1
}
 80002cc:	4618      	mov	r0, r3
 80002ce:	370c      	adds	r7, #12
 80002d0:	46bd      	mov	sp, r7
 80002d2:	f85d 7b04 	ldr.w	r7, [sp], #4
 80002d6:	4770      	bx	lr
 80002d8:	40020000 	.word	0x40020000
 80002dc:	40023800 	.word	0x40023800
 80002e0:	40020400 	.word	0x40020400
 80002e4:	40020800 	.word	0x40020800
 80002e8:	40020c00 	.word	0x40020c00
 80002ec:	40021000 	.word	0x40021000
 80002f0:	40021c00 	.word	0x40021c00

080002f4 <GPIO_Pin_Init>:


void GPIO_Pin_Init(GPIO_TypeDef *Port, uint8_t pin, uint8_t mode, uint8_t output_type, uint8_t speed, uint8_t pull, uint8_t alternate_function)
{
 80002f4:	b580      	push	{r7, lr}
 80002f6:	b082      	sub	sp, #8
 80002f8:	af00      	add	r7, sp, #0
 80002fa:	6078      	str	r0, [r7, #4]
 80002fc:	4608      	mov	r0, r1
 80002fe:	4611      	mov	r1, r2
 8000300:	461a      	mov	r2, r3
 8000302:	4603      	mov	r3, r0
 8000304:	70fb      	strb	r3, [r7, #3]
 8000306:	460b      	mov	r3, r1
 8000308:	70bb      	strb	r3, [r7, #2]
 800030a:	4613      	mov	r3, r2
 800030c:	707b      	strb	r3, [r7, #1]
	GPIO_Clock_Enable(Port);
 800030e:	6878      	ldr	r0, [r7, #4]
 8000310:	f7ff ff92 	bl	8000238 <GPIO_Clock_Enable>
	Port -> MODER &= ~(3 << (pin*2));
 8000314:	687b      	ldr	r3, [r7, #4]
 8000316:	681b      	ldr	r3, [r3, #0]
 8000318:	78fa      	ldrb	r2, [r7, #3]
 800031a:	0052      	lsls	r2, r2, #1
 800031c:	2103      	movs	r1, #3
 800031e:	fa01 f202 	lsl.w	r2, r1, r2
 8000322:	43d2      	mvns	r2, r2
 8000324:	401a      	ands	r2, r3
 8000326:	687b      	ldr	r3, [r7, #4]
 8000328:	601a      	str	r2, [r3, #0]
	Port -> MODER |= mode << (pin*2);
 800032a:	687b      	ldr	r3, [r7, #4]
 800032c:	681b      	ldr	r3, [r3, #0]
 800032e:	78b9      	ldrb	r1, [r7, #2]
 8000330:	78fa      	ldrb	r2, [r7, #3]
 8000332:	0052      	lsls	r2, r2, #1
 8000334:	fa01 f202 	lsl.w	r2, r1, r2
 8000338:	431a      	orrs	r2, r3
 800033a:	687b      	ldr	r3, [r7, #4]
 800033c:	601a      	str	r2, [r3, #0]
	Port -> OTYPER |= output_type << pin;
 800033e:	687b      	ldr	r3, [r7, #4]
 8000340:	685b      	ldr	r3, [r3, #4]
 8000342:	7879      	ldrb	r1, [r7, #1]
 8000344:	78fa      	ldrb	r2, [r7, #3]
 8000346:	fa01 f202 	lsl.w	r2, r1, r2
 800034a:	431a      	orrs	r2, r3
 800034c:	687b      	ldr	r3, [r7, #4]
 800034e:	605a      	str	r2, [r3, #4]
	Port -> OSPEEDR |= speed << (pin*2);
 8000350:	687b      	ldr	r3, [r7, #4]
 8000352:	689b      	ldr	r3, [r3, #8]
 8000354:	7c39      	ldrb	r1, [r7, #16]
 8000356:	78fa      	ldrb	r2, [r7, #3]
 8000358:	0052      	lsls	r2, r2, #1
 800035a:	fa01 f202 	lsl.w	r2, r1, r2
 800035e:	431a      	orrs	r2, r3
 8000360:	687b      	ldr	r3, [r7, #4]
 8000362:	609a      	str	r2, [r3, #8]
	Port -> PUPDR |= pull << (pin*2);
 8000364:	687b      	ldr	r3, [r7, #4]
 8000366:	68db      	ldr	r3, [r3, #12]
 8000368:	7d39      	ldrb	r1, [r7, #20]
 800036a:	78fa      	ldrb	r2, [r7, #3]
 800036c:	0052      	lsls	r2, r2, #1
 800036e:	fa01 f202 	lsl.w	r2, r1, r2
 8000372:	431a      	orrs	r2, r3
 8000374:	687b      	ldr	r3, [r7, #4]
 8000376:	60da      	str	r2, [r3, #12]
	if(pin < 8) Port -> AFR[0] |= alternate_function << (pin*4);
 8000378:	78fb      	ldrb	r3, [r7, #3]
 800037a:	2b07      	cmp	r3, #7
 800037c:	d80a      	bhi.n	8000394 <GPIO_Pin_Init+0xa0>
 800037e:	687b      	ldr	r3, [r7, #4]
 8000380:	6a1b      	ldr	r3, [r3, #32]
 8000382:	7e39      	ldrb	r1, [r7, #24]
 8000384:	78fa      	ldrb	r2, [r7, #3]
 8000386:	0092      	lsls	r2, r2, #2
 8000388:	fa01 f202 	lsl.w	r2, r1, r2
 800038c:	431a      	orrs	r2, r3
 800038e:	687b      	ldr	r3, [r7, #4]
 8000390:	621a      	str	r2, [r3, #32]
	else Port -> AFR[1] |= alternate_function << ((pin-8)*4);
}
 8000392:	e00a      	b.n	80003aa <GPIO_Pin_Init+0xb6>
	else Port -> AFR[1] |= alternate_function << ((pin-8)*4);
 8000394:	687b      	ldr	r3, [r7, #4]
 8000396:	6a5b      	ldr	r3, [r3, #36]	; 0x24
 8000398:	7e39      	ldrb	r1, [r7, #24]
 800039a:	78fa      	ldrb	r2, [r7, #3]
 800039c:	3a08      	subs	r2, #8
 800039e:	0092      	lsls	r2, r2, #2
 80003a0:	fa01 f202 	lsl.w	r2, r1, r2
 80003a4:	431a      	orrs	r2, r3
 80003a6:	687b      	ldr	r3, [r7, #4]
 80003a8:	625a      	str	r2, [r3, #36]	; 0x24
}
 80003aa:	bf00      	nop
 80003ac:	3708      	adds	r7, #8
 80003ae:	46bd      	mov	sp, r7
 80003b0:	bd80      	pop	{r7, pc}
	...

080003b4 <SPI_Clock_Enable>:

//DMA_Config xDMA_TX;
//DMA_Config xDMA_RX;

int8_t SPI_Clock_Enable(SPI_Config *config)
{
 80003b4:	b480      	push	{r7}
 80003b6:	b085      	sub	sp, #20
 80003b8:	af00      	add	r7, sp, #0
 80003ba:	6078      	str	r0, [r7, #4]
	int8_t retval = 0;
 80003bc:	2300      	movs	r3, #0
 80003be:	73fb      	strb	r3, [r7, #15]
	if(config ->Port == SPI1)RCC -> APB2ENR |= RCC_APB2ENR_SPI1EN;
 80003c0:	687b      	ldr	r3, [r7, #4]
 80003c2:	681b      	ldr	r3, [r3, #0]
 80003c4:	4a14      	ldr	r2, [pc, #80]	; (8000418 <SPI_Clock_Enable+0x64>)
 80003c6:	4293      	cmp	r3, r2
 80003c8:	d105      	bne.n	80003d6 <SPI_Clock_Enable+0x22>
 80003ca:	4b14      	ldr	r3, [pc, #80]	; (800041c <SPI_Clock_Enable+0x68>)
 80003cc:	6c5b      	ldr	r3, [r3, #68]	; 0x44
 80003ce:	4a13      	ldr	r2, [pc, #76]	; (800041c <SPI_Clock_Enable+0x68>)
 80003d0:	f443 5380 	orr.w	r3, r3, #4096	; 0x1000
 80003d4:	6453      	str	r3, [r2, #68]	; 0x44
	if(config ->Port == SPI2)RCC -> APB1ENR |= RCC_APB1ENR_SPI2EN;
 80003d6:	687b      	ldr	r3, [r7, #4]
 80003d8:	681b      	ldr	r3, [r3, #0]
 80003da:	4a11      	ldr	r2, [pc, #68]	; (8000420 <SPI_Clock_Enable+0x6c>)
 80003dc:	4293      	cmp	r3, r2
 80003de:	d105      	bne.n	80003ec <SPI_Clock_Enable+0x38>
 80003e0:	4b0e      	ldr	r3, [pc, #56]	; (800041c <SPI_Clock_Enable+0x68>)
 80003e2:	6c1b      	ldr	r3, [r3, #64]	; 0x40
 80003e4:	4a0d      	ldr	r2, [pc, #52]	; (800041c <SPI_Clock_Enable+0x68>)
 80003e6:	f443 4380 	orr.w	r3, r3, #16384	; 0x4000
 80003ea:	6413      	str	r3, [r2, #64]	; 0x40
	if(config ->Port == SPI3)RCC -> APB1ENR |= RCC_APB1ENR_SPI3EN;
 80003ec:	687b      	ldr	r3, [r7, #4]
 80003ee:	681b      	ldr	r3, [r3, #0]
 80003f0:	4a0c      	ldr	r2, [pc, #48]	; (8000424 <SPI_Clock_Enable+0x70>)
 80003f2:	4293      	cmp	r3, r2
 80003f4:	d106      	bne.n	8000404 <SPI_Clock_Enable+0x50>
 80003f6:	4b09      	ldr	r3, [pc, #36]	; (800041c <SPI_Clock_Enable+0x68>)
 80003f8:	6c1b      	ldr	r3, [r3, #64]	; 0x40
 80003fa:	4a08      	ldr	r2, [pc, #32]	; (800041c <SPI_Clock_Enable+0x68>)
 80003fc:	f443 4300 	orr.w	r3, r3, #32768	; 0x8000
 8000400:	6413      	str	r3, [r2, #64]	; 0x40
 8000402:	e001      	b.n	8000408 <SPI_Clock_Enable+0x54>
	else
		retval = -1;
 8000404:	23ff      	movs	r3, #255	; 0xff
 8000406:	73fb      	strb	r3, [r7, #15]
	return retval;
 8000408:	f997 300f 	ldrsb.w	r3, [r7, #15]
}
 800040c:	4618      	mov	r0, r3
 800040e:	3714      	adds	r7, #20
 8000410:	46bd      	mov	sp, r7
 8000412:	f85d 7b04 	ldr.w	r7, [sp], #4
 8000416:	4770      	bx	lr
 8000418:	40013000 	.word	0x40013000
 800041c:	40023800 	.word	0x40023800
 8000420:	40003800 	.word	0x40003800
 8000424:	40003c00 	.word	0x40003c00

08000428 <SPI_Config_Reset>:
	return retval;
}


int8_t SPI_Config_Reset(SPI_Config *config)
{
 8000428:	b480      	push	{r7}
 800042a:	b085      	sub	sp, #20
 800042c:	af00      	add	r7, sp, #0
 800042e:	6078      	str	r0, [r7, #4]
	int8_t retval = 0;
 8000430:	2300      	movs	r3, #0
 8000432:	73fb      	strb	r3, [r7, #15]
	if(config ->Port == SPI1)RCC -> APB2RSTR |= RCC_APB2RSTR_SPI1RST;
 8000434:	687b      	ldr	r3, [r7, #4]
 8000436:	681b      	ldr	r3, [r3, #0]
 8000438:	4a28      	ldr	r2, [pc, #160]	; (80004dc <SPI_Config_Reset+0xb4>)
 800043a:	4293      	cmp	r3, r2
 800043c:	d105      	bne.n	800044a <SPI_Config_Reset+0x22>
 800043e:	4b28      	ldr	r3, [pc, #160]	; (80004e0 <SPI_Config_Reset+0xb8>)
 8000440:	6a5b      	ldr	r3, [r3, #36]	; 0x24
 8000442:	4a27      	ldr	r2, [pc, #156]	; (80004e0 <SPI_Config_Reset+0xb8>)
 8000444:	f443 5380 	orr.w	r3, r3, #4096	; 0x1000
 8000448:	6253      	str	r3, [r2, #36]	; 0x24
	if(config ->Port == SPI2)RCC -> APB1RSTR |= RCC_APB1RSTR_SPI2RST;
 800044a:	687b      	ldr	r3, [r7, #4]
 800044c:	681b      	ldr	r3, [r3, #0]
 800044e:	4a25      	ldr	r2, [pc, #148]	; (80004e4 <SPI_Config_Reset+0xbc>)
 8000450:	4293      	cmp	r3, r2
 8000452:	d105      	bne.n	8000460 <SPI_Config_Reset+0x38>
 8000454:	4b22      	ldr	r3, [pc, #136]	; (80004e0 <SPI_Config_Reset+0xb8>)
 8000456:	6a1b      	ldr	r3, [r3, #32]
 8000458:	4a21      	ldr	r2, [pc, #132]	; (80004e0 <SPI_Config_Reset+0xb8>)
 800045a:	f443 4380 	orr.w	r3, r3, #16384	; 0x4000
 800045e:	6213      	str	r3, [r2, #32]
	if(config ->Port == SPI3)RCC -> APB1RSTR |= RCC_APB1RSTR_SPI3RST;
 8000460:	687b      	ldr	r3, [r7, #4]
 8000462:	681b      	ldr	r3, [r3, #0]
 8000464:	4a20      	ldr	r2, [pc, #128]	; (80004e8 <SPI_Config_Reset+0xc0>)
 8000466:	4293      	cmp	r3, r2
 8000468:	d106      	bne.n	8000478 <SPI_Config_Reset+0x50>
 800046a:	4b1d      	ldr	r3, [pc, #116]	; (80004e0 <SPI_Config_Reset+0xb8>)
 800046c:	6a1b      	ldr	r3, [r3, #32]
 800046e:	4a1c      	ldr	r2, [pc, #112]	; (80004e0 <SPI_Config_Reset+0xb8>)
 8000470:	f443 4300 	orr.w	r3, r3, #32768	; 0x8000
 8000474:	6213      	str	r3, [r2, #32]
 8000476:	e001      	b.n	800047c <SPI_Config_Reset+0x54>
	else
		retval = -1;
 8000478:	23ff      	movs	r3, #255	; 0xff
 800047a:	73fb      	strb	r3, [r7, #15]

	config->NSS_Port = GPIOA;
 800047c:	687b      	ldr	r3, [r7, #4]
 800047e:	4a1b      	ldr	r2, [pc, #108]	; (80004ec <SPI_Config_Reset+0xc4>)
 8000480:	609a      	str	r2, [r3, #8]
	config->NSS_Pin = 4;
 8000482:	687b      	ldr	r3, [r7, #4]
 8000484:	2204      	movs	r2, #4
 8000486:	731a      	strb	r2, [r3, #12]
	config->clock_phase = SPI_Clock_Phase.High_1;
 8000488:	2201      	movs	r2, #1
 800048a:	687b      	ldr	r3, [r7, #4]
 800048c:	839a      	strh	r2, [r3, #28]
	config->clock_polarity = SPI_Clock_Polarity.High_1;
 800048e:	2202      	movs	r2, #2
 8000490:	687b      	ldr	r3, [r7, #4]
 8000492:	835a      	strh	r2, [r3, #26]
	config->mode = SPI_Mode.Full_Duplex_Master;
 8000494:	2300      	movs	r3, #0
 8000496:	b29a      	uxth	r2, r3
 8000498:	687b      	ldr	r3, [r7, #4]
 800049a:	81da      	strh	r2, [r3, #14]
	config->crc = SPI_CRC.Disable;
 800049c:	2200      	movs	r2, #0
 800049e:	687b      	ldr	r3, [r7, #4]
 80004a0:	821a      	strh	r2, [r3, #16]
	config->data_format = SPI_Data_Format.Bit8;
 80004a2:	2200      	movs	r2, #0
 80004a4:	687b      	ldr	r3, [r7, #4]
 80004a6:	825a      	strh	r2, [r3, #18]
	config->frame_format = SPI_Frame_Format.MSB_First;
 80004a8:	2200      	movs	r2, #0
 80004aa:	687b      	ldr	r3, [r7, #4]
 80004ac:	829a      	strh	r2, [r3, #20]
	config->dma = SPI_DMA.TX_DMA_Disable | SPI_DMA.RX_DMA_Disable;
 80004ae:	2200      	movs	r2, #0
 80004b0:	2300      	movs	r3, #0
 80004b2:	4313      	orrs	r3, r2
 80004b4:	b2db      	uxtb	r3, r3
 80004b6:	b29a      	uxth	r2, r3
 80004b8:	687b      	ldr	r3, [r7, #4]
 80004ba:	841a      	strh	r2, [r3, #32]
	config->interrupt = SPI_Interrupt.Disable;
 80004bc:	2300      	movs	r3, #0
 80004be:	b29a      	uxth	r2, r3
 80004c0:	687b      	ldr	r3, [r7, #4]
 80004c2:	83da      	strh	r2, [r3, #30]
	config->type = SPI_Type.Master;
 80004c4:	2204      	movs	r2, #4
 80004c6:	687b      	ldr	r3, [r7, #4]
 80004c8:	831a      	strh	r2, [r3, #24]

	return retval;
 80004ca:	f997 300f 	ldrsb.w	r3, [r7, #15]
}
 80004ce:	4618      	mov	r0, r3
 80004d0:	3714      	adds	r7, #20
 80004d2:	46bd      	mov	sp, r7
 80004d4:	f85d 7b04 	ldr.w	r7, [sp], #4
 80004d8:	4770      	bx	lr
 80004da:	bf00      	nop
 80004dc:	40013000 	.word	0x40013000
 80004e0:	40023800 	.word	0x40023800
 80004e4:	40003800 	.word	0x40003800
 80004e8:	40003c00 	.word	0x40003c00
 80004ec:	40020000 	.word	0x40020000

080004f0 <SPI_Pin>:


static void SPI_Pin(SPI_Config *config)
{
 80004f0:	b590      	push	{r4, r7, lr}
 80004f2:	b087      	sub	sp, #28
 80004f4:	af04      	add	r7, sp, #16
 80004f6:	6078      	str	r0, [r7, #4]
	if(config -> Port == SPI1)
 80004f8:	687b      	ldr	r3, [r7, #4]
 80004fa:	681b      	ldr	r3, [r3, #0]
 80004fc:	4a77      	ldr	r2, [pc, #476]	; (80006dc <SPI_Pin+0x1ec>)
 80004fe:	4293      	cmp	r3, r2
 8000500:	f040 8158 	bne.w	80007b4 <SPI_Pin+0x2c4>
	{
		if(config->mode == 0)
 8000504:	687b      	ldr	r3, [r7, #4]
 8000506:	89db      	ldrh	r3, [r3, #14]
 8000508:	2b00      	cmp	r3, #0
 800050a:	f040 8081 	bne.w	8000610 <SPI_Pin+0x120>
		{
			if(config->clock_pin == SPI1_CLK.PA5) GPIO_Pin_Init(GPIOA, 5, MODE.Alternate_Function, Output_Type.Push_Pull, Speed.Very_High_Speed, Pull.No_Pull_Up_Down, Alternate_Functions.SPI_1);
 800050e:	687b      	ldr	r3, [r7, #4]
 8000510:	791b      	ldrb	r3, [r3, #4]
 8000512:	b29b      	uxth	r3, r3
 8000514:	220f      	movs	r2, #15
 8000516:	4293      	cmp	r3, r2
 8000518:	d10d      	bne.n	8000536 <SPI_Pin+0x46>
 800051a:	2002      	movs	r0, #2
 800051c:	2400      	movs	r4, #0
 800051e:	2303      	movs	r3, #3
 8000520:	2200      	movs	r2, #0
 8000522:	2105      	movs	r1, #5
 8000524:	9102      	str	r1, [sp, #8]
 8000526:	9201      	str	r2, [sp, #4]
 8000528:	9300      	str	r3, [sp, #0]
 800052a:	4623      	mov	r3, r4
 800052c:	4602      	mov	r2, r0
 800052e:	2105      	movs	r1, #5
 8000530:	486b      	ldr	r0, [pc, #428]	; (80006e0 <SPI_Pin+0x1f0>)
 8000532:	f7ff fedf 	bl	80002f4 <GPIO_Pin_Init>
			if(config->clock_pin == SPI1_CLK.PB3) GPIO_Pin_Init(GPIOB, 3, MODE.Alternate_Function, Output_Type.Push_Pull, Speed.Very_High_Speed, Pull.No_Pull_Up_Down, Alternate_Functions.SPI_1);
 8000536:	687b      	ldr	r3, [r7, #4]
 8000538:	791b      	ldrb	r3, [r3, #4]
 800053a:	b29b      	uxth	r3, r3
 800053c:	2217      	movs	r2, #23
 800053e:	4293      	cmp	r3, r2
 8000540:	d10d      	bne.n	800055e <SPI_Pin+0x6e>
 8000542:	2002      	movs	r0, #2
 8000544:	2400      	movs	r4, #0
 8000546:	2303      	movs	r3, #3
 8000548:	2200      	movs	r2, #0
 800054a:	2105      	movs	r1, #5
 800054c:	9102      	str	r1, [sp, #8]
 800054e:	9201      	str	r2, [sp, #4]
 8000550:	9300      	str	r3, [sp, #0]
 8000552:	4623      	mov	r3, r4
 8000554:	4602      	mov	r2, r0
 8000556:	2103      	movs	r1, #3
 8000558:	4862      	ldr	r0, [pc, #392]	; (80006e4 <SPI_Pin+0x1f4>)
 800055a:	f7ff fecb 	bl	80002f4 <GPIO_Pin_Init>

			if(config->miso_pin == SPI1_MISO.PA6) GPIO_Pin_Init(GPIOA, 6, MODE.Alternate_Function, Output_Type.Push_Pull, Speed.Very_High_Speed, Pull.No_Pull_Up_Down, Alternate_Functions.SPI_1);
 800055e:	687b      	ldr	r3, [r7, #4]
 8000560:	799b      	ldrb	r3, [r3, #6]
 8000562:	b29b      	uxth	r3, r3
 8000564:	2210      	movs	r2, #16
 8000566:	4293      	cmp	r3, r2
 8000568:	d10d      	bne.n	8000586 <SPI_Pin+0x96>
 800056a:	2002      	movs	r0, #2
 800056c:	2400      	movs	r4, #0
 800056e:	2303      	movs	r3, #3
 8000570:	2200      	movs	r2, #0
 8000572:	2105      	movs	r1, #5
 8000574:	9102      	str	r1, [sp, #8]
 8000576:	9201      	str	r2, [sp, #4]
 8000578:	9300      	str	r3, [sp, #0]
 800057a:	4623      	mov	r3, r4
 800057c:	4602      	mov	r2, r0
 800057e:	2106      	movs	r1, #6
 8000580:	4857      	ldr	r0, [pc, #348]	; (80006e0 <SPI_Pin+0x1f0>)
 8000582:	f7ff feb7 	bl	80002f4 <GPIO_Pin_Init>
			if(config->miso_pin == SPI1_MISO.PB4) GPIO_Pin_Init(GPIOB, 4, MODE.Alternate_Function, Output_Type.Push_Pull, Speed.Very_High_Speed, Pull.No_Pull_Up_Down, Alternate_Functions.SPI_1);
 8000586:	687b      	ldr	r3, [r7, #4]
 8000588:	799b      	ldrb	r3, [r3, #6]
 800058a:	b29b      	uxth	r3, r3
 800058c:	2218      	movs	r2, #24
 800058e:	4293      	cmp	r3, r2
 8000590:	d10d      	bne.n	80005ae <SPI_Pin+0xbe>
 8000592:	2002      	movs	r0, #2
 8000594:	2400      	movs	r4, #0
 8000596:	2303      	movs	r3, #3
 8000598:	2200      	movs	r2, #0
 800059a:	2105      	movs	r1, #5
 800059c:	9102      	str	r1, [sp, #8]
 800059e:	9201      	str	r2, [sp, #4]
 80005a0:	9300      	str	r3, [sp, #0]
 80005a2:	4623      	mov	r3, r4
 80005a4:	4602      	mov	r2, r0
 80005a6:	2104      	movs	r1, #4
 80005a8:	484e      	ldr	r0, [pc, #312]	; (80006e4 <SPI_Pin+0x1f4>)
 80005aa:	f7ff fea3 	bl	80002f4 <GPIO_Pin_Init>

			if(config->mosi_pin == SPI1_MOSI.PA7) GPIO_Pin_Init(GPIOA, 7, MODE.Alternate_Function, Output_Type.Push_Pull, Speed.Very_High_Speed, Pull.No_Pull_Up_Down, Alternate_Functions.SPI_1);
 80005ae:	687b      	ldr	r3, [r7, #4]
 80005b0:	795b      	ldrb	r3, [r3, #5]
 80005b2:	b29b      	uxth	r3, r3
 80005b4:	2211      	movs	r2, #17
 80005b6:	4293      	cmp	r3, r2
 80005b8:	d10d      	bne.n	80005d6 <SPI_Pin+0xe6>
 80005ba:	2002      	movs	r0, #2
 80005bc:	2400      	movs	r4, #0
 80005be:	2303      	movs	r3, #3
 80005c0:	2200      	movs	r2, #0
 80005c2:	2105      	movs	r1, #5
 80005c4:	9102      	str	r1, [sp, #8]
 80005c6:	9201      	str	r2, [sp, #4]
 80005c8:	9300      	str	r3, [sp, #0]
 80005ca:	4623      	mov	r3, r4
 80005cc:	4602      	mov	r2, r0
 80005ce:	2107      	movs	r1, #7
 80005d0:	4843      	ldr	r0, [pc, #268]	; (80006e0 <SPI_Pin+0x1f0>)
 80005d2:	f7ff fe8f 	bl	80002f4 <GPIO_Pin_Init>
			if(config->mosi_pin == SPI1_MOSI.PB5) GPIO_Pin_Init(GPIOB, 5, MODE.Alternate_Function, Output_Type.Push_Pull, Speed.Very_High_Speed, Pull.No_Pull_Up_Down, Alternate_Functions.SPI_1);
 80005d6:	687b      	ldr	r3, [r7, #4]
 80005d8:	795b      	ldrb	r3, [r3, #5]
 80005da:	b29b      	uxth	r3, r3
 80005dc:	2219      	movs	r2, #25
 80005de:	4293      	cmp	r3, r2
 80005e0:	d10d      	bne.n	80005fe <SPI_Pin+0x10e>
 80005e2:	2002      	movs	r0, #2
 80005e4:	2400      	movs	r4, #0
 80005e6:	2303      	movs	r3, #3
 80005e8:	2200      	movs	r2, #0
 80005ea:	2105      	movs	r1, #5
 80005ec:	9102      	str	r1, [sp, #8]
 80005ee:	9201      	str	r2, [sp, #4]
 80005f0:	9300      	str	r3, [sp, #0]
 80005f2:	4623      	mov	r3, r4
 80005f4:	4602      	mov	r2, r0
 80005f6:	2105      	movs	r1, #5
 80005f8:	483a      	ldr	r0, [pc, #232]	; (80006e4 <SPI_Pin+0x1f4>)
 80005fa:	f7ff fe7b 	bl	80002f4 <GPIO_Pin_Init>

			config->Port -> CR1 &= ~SPI_CR1_BIDIMODE;
 80005fe:	687b      	ldr	r3, [r7, #4]
 8000600:	681b      	ldr	r3, [r3, #0]
 8000602:	681a      	ldr	r2, [r3, #0]
 8000604:	687b      	ldr	r3, [r7, #4]
 8000606:	681b      	ldr	r3, [r3, #0]
 8000608:	f422 4200 	bic.w	r2, r2, #32768	; 0x8000
 800060c:	601a      	str	r2, [r3, #0]

			config->Port -> CR1 |= SPI_CR1_BIDIMODE;
			config->Port -> CR1 &= ~SPI_CR1_BIDIOE;
		}
	}
}
 800060e:	e393      	b.n	8000d38 <SPI_Pin+0x848>
		else if(config->mode == 1)
 8000610:	687b      	ldr	r3, [r7, #4]
 8000612:	89db      	ldrh	r3, [r3, #14]
 8000614:	2b01      	cmp	r3, #1
 8000616:	d167      	bne.n	80006e8 <SPI_Pin+0x1f8>
			if(config->clock_pin == SPI1_CLK.PA5) GPIO_Pin_Init(GPIOA, 5, MODE.Alternate_Function, Output_Type.Push_Pull, Speed.Very_High_Speed, Pull.No_Pull_Up_Down, Alternate_Functions.SPI_1);
 8000618:	687b      	ldr	r3, [r7, #4]
 800061a:	791b      	ldrb	r3, [r3, #4]
 800061c:	b29b      	uxth	r3, r3
 800061e:	220f      	movs	r2, #15
 8000620:	4293      	cmp	r3, r2
 8000622:	d10d      	bne.n	8000640 <SPI_Pin+0x150>
 8000624:	2002      	movs	r0, #2
 8000626:	2400      	movs	r4, #0
 8000628:	2303      	movs	r3, #3
 800062a:	2200      	movs	r2, #0
 800062c:	2105      	movs	r1, #5
 800062e:	9102      	str	r1, [sp, #8]
 8000630:	9201      	str	r2, [sp, #4]
 8000632:	9300      	str	r3, [sp, #0]
 8000634:	4623      	mov	r3, r4
 8000636:	4602      	mov	r2, r0
 8000638:	2105      	movs	r1, #5
 800063a:	4829      	ldr	r0, [pc, #164]	; (80006e0 <SPI_Pin+0x1f0>)
 800063c:	f7ff fe5a 	bl	80002f4 <GPIO_Pin_Init>
			if(config->clock_pin == SPI1_CLK.PB3) GPIO_Pin_Init(GPIOB, 3, MODE.Alternate_Function, Output_Type.Push_Pull, Speed.Very_High_Speed, Pull.No_Pull_Up_Down, Alternate_Functions.SPI_1);
 8000640:	687b      	ldr	r3, [r7, #4]
 8000642:	791b      	ldrb	r3, [r3, #4]
 8000644:	b29b      	uxth	r3, r3
 8000646:	2217      	movs	r2, #23
 8000648:	4293      	cmp	r3, r2
 800064a:	d10d      	bne.n	8000668 <SPI_Pin+0x178>
 800064c:	2002      	movs	r0, #2
 800064e:	2400      	movs	r4, #0
 8000650:	2303      	movs	r3, #3
 8000652:	2200      	movs	r2, #0
 8000654:	2105      	movs	r1, #5
 8000656:	9102      	str	r1, [sp, #8]
 8000658:	9201      	str	r2, [sp, #4]
 800065a:	9300      	str	r3, [sp, #0]
 800065c:	4623      	mov	r3, r4
 800065e:	4602      	mov	r2, r0
 8000660:	2103      	movs	r1, #3
 8000662:	4820      	ldr	r0, [pc, #128]	; (80006e4 <SPI_Pin+0x1f4>)
 8000664:	f7ff fe46 	bl	80002f4 <GPIO_Pin_Init>
			if(config->mosi_pin == SPI1_MOSI.PA7) GPIO_Pin_Init(GPIOA, 7, MODE.Alternate_Function, Output_Type.Push_Pull, Speed.Very_High_Speed, Pull.No_Pull_Up_Down, Alternate_Functions.SPI_1);
 8000668:	687b      	ldr	r3, [r7, #4]
 800066a:	795b      	ldrb	r3, [r3, #5]
 800066c:	b29b      	uxth	r3, r3
 800066e:	2211      	movs	r2, #17
 8000670:	4293      	cmp	r3, r2
 8000672:	d10d      	bne.n	8000690 <SPI_Pin+0x1a0>
 8000674:	2002      	movs	r0, #2
 8000676:	2400      	movs	r4, #0
 8000678:	2303      	movs	r3, #3
 800067a:	2200      	movs	r2, #0
 800067c:	2105      	movs	r1, #5
 800067e:	9102      	str	r1, [sp, #8]
 8000680:	9201      	str	r2, [sp, #4]
 8000682:	9300      	str	r3, [sp, #0]
 8000684:	4623      	mov	r3, r4
 8000686:	4602      	mov	r2, r0
 8000688:	2107      	movs	r1, #7
 800068a:	4815      	ldr	r0, [pc, #84]	; (80006e0 <SPI_Pin+0x1f0>)
 800068c:	f7ff fe32 	bl	80002f4 <GPIO_Pin_Init>
			if(config->mosi_pin == SPI1_MOSI.PB5) GPIO_Pin_Init(GPIOB, 5, MODE.Alternate_Function, Output_Type.Push_Pull, Speed.Very_High_Speed, Pull.No_Pull_Up_Down, Alternate_Functions.SPI_1);
 8000690:	687b      	ldr	r3, [r7, #4]
 8000692:	795b      	ldrb	r3, [r3, #5]
 8000694:	b29b      	uxth	r3, r3
 8000696:	2219      	movs	r2, #25
 8000698:	4293      	cmp	r3, r2
 800069a:	d10d      	bne.n	80006b8 <SPI_Pin+0x1c8>
 800069c:	2002      	movs	r0, #2
 800069e:	2400      	movs	r4, #0
 80006a0:	2303      	movs	r3, #3
 80006a2:	2200      	movs	r2, #0
 80006a4:	2105      	movs	r1, #5
 80006a6:	9102      	str	r1, [sp, #8]
 80006a8:	9201      	str	r2, [sp, #4]
 80006aa:	9300      	str	r3, [sp, #0]
 80006ac:	4623      	mov	r3, r4
 80006ae:	4602      	mov	r2, r0
 80006b0:	2105      	movs	r1, #5
 80006b2:	480c      	ldr	r0, [pc, #48]	; (80006e4 <SPI_Pin+0x1f4>)
 80006b4:	f7ff fe1e 	bl	80002f4 <GPIO_Pin_Init>
			config->Port -> CR1 |= SPI_CR1_BIDIMODE;
 80006b8:	687b      	ldr	r3, [r7, #4]
 80006ba:	681b      	ldr	r3, [r3, #0]
 80006bc:	681a      	ldr	r2, [r3, #0]
 80006be:	687b      	ldr	r3, [r7, #4]
 80006c0:	681b      	ldr	r3, [r3, #0]
 80006c2:	f442 4200 	orr.w	r2, r2, #32768	; 0x8000
 80006c6:	601a      	str	r2, [r3, #0]
			config->Port -> CR1 |= SPI_CR1_BIDIOE;
 80006c8:	687b      	ldr	r3, [r7, #4]
 80006ca:	681b      	ldr	r3, [r3, #0]
 80006cc:	681a      	ldr	r2, [r3, #0]
 80006ce:	687b      	ldr	r3, [r7, #4]
 80006d0:	681b      	ldr	r3, [r3, #0]
 80006d2:	f442 4280 	orr.w	r2, r2, #16384	; 0x4000
 80006d6:	601a      	str	r2, [r3, #0]
}
 80006d8:	e32e      	b.n	8000d38 <SPI_Pin+0x848>
 80006da:	bf00      	nop
 80006dc:	40013000 	.word	0x40013000
 80006e0:	40020000 	.word	0x40020000
 80006e4:	40020400 	.word	0x40020400
		else if(config->mode == 2)
 80006e8:	687b      	ldr	r3, [r7, #4]
 80006ea:	89db      	ldrh	r3, [r3, #14]
 80006ec:	2b02      	cmp	r3, #2
 80006ee:	f040 8323 	bne.w	8000d38 <SPI_Pin+0x848>
			if(config->clock_pin == SPI1_CLK.PA5) GPIO_Pin_Init(GPIOA, 5, MODE.Alternate_Function, Output_Type.Push_Pull, Speed.Very_High_Speed, Pull.No_Pull_Up_Down, Alternate_Functions.SPI_1);
 80006f2:	687b      	ldr	r3, [r7, #4]
 80006f4:	791b      	ldrb	r3, [r3, #4]
 80006f6:	b29b      	uxth	r3, r3
 80006f8:	220f      	movs	r2, #15
 80006fa:	4293      	cmp	r3, r2
 80006fc:	d10d      	bne.n	800071a <SPI_Pin+0x22a>
 80006fe:	2002      	movs	r0, #2
 8000700:	2400      	movs	r4, #0
 8000702:	2303      	movs	r3, #3
 8000704:	2200      	movs	r2, #0
 8000706:	2105      	movs	r1, #5
 8000708:	9102      	str	r1, [sp, #8]
 800070a:	9201      	str	r2, [sp, #4]
 800070c:	9300      	str	r3, [sp, #0]
 800070e:	4623      	mov	r3, r4
 8000710:	4602      	mov	r2, r0
 8000712:	2105      	movs	r1, #5
 8000714:	48a0      	ldr	r0, [pc, #640]	; (8000998 <SPI_Pin+0x4a8>)
 8000716:	f7ff fded 	bl	80002f4 <GPIO_Pin_Init>
			if(config->clock_pin == SPI1_CLK.PB3) GPIO_Pin_Init(GPIOB, 3, MODE.Alternate_Function, Output_Type.Push_Pull, Speed.Very_High_Speed, Pull.No_Pull_Up_Down, Alternate_Functions.SPI_1);
 800071a:	687b      	ldr	r3, [r7, #4]
 800071c:	791b      	ldrb	r3, [r3, #4]
 800071e:	b29b      	uxth	r3, r3
 8000720:	2217      	movs	r2, #23
 8000722:	4293      	cmp	r3, r2
 8000724:	d10d      	bne.n	8000742 <SPI_Pin+0x252>
 8000726:	2002      	movs	r0, #2
 8000728:	2400      	movs	r4, #0
 800072a:	2303      	movs	r3, #3
 800072c:	2200      	movs	r2, #0
 800072e:	2105      	movs	r1, #5
 8000730:	9102      	str	r1, [sp, #8]
 8000732:	9201      	str	r2, [sp, #4]
 8000734:	9300      	str	r3, [sp, #0]
 8000736:	4623      	mov	r3, r4
 8000738:	4602      	mov	r2, r0
 800073a:	2103      	movs	r1, #3
 800073c:	4897      	ldr	r0, [pc, #604]	; (800099c <SPI_Pin+0x4ac>)
 800073e:	f7ff fdd9 	bl	80002f4 <GPIO_Pin_Init>
			if(config->miso_pin == SPI1_MISO.PA6) GPIO_Pin_Init(GPIOA, 6, MODE.Alternate_Function, Output_Type.Push_Pull, Speed.Very_High_Speed, Pull.No_Pull_Up_Down, Alternate_Functions.SPI_1);
 8000742:	687b      	ldr	r3, [r7, #4]
 8000744:	799b      	ldrb	r3, [r3, #6]
 8000746:	b29b      	uxth	r3, r3
 8000748:	2210      	movs	r2, #16
 800074a:	4293      	cmp	r3, r2
 800074c:	d10d      	bne.n	800076a <SPI_Pin+0x27a>
 800074e:	2002      	movs	r0, #2
 8000750:	2400      	movs	r4, #0
 8000752:	2303      	movs	r3, #3
 8000754:	2200      	movs	r2, #0
 8000756:	2105      	movs	r1, #5
 8000758:	9102      	str	r1, [sp, #8]
 800075a:	9201      	str	r2, [sp, #4]
 800075c:	9300      	str	r3, [sp, #0]
 800075e:	4623      	mov	r3, r4
 8000760:	4602      	mov	r2, r0
 8000762:	2106      	movs	r1, #6
 8000764:	488c      	ldr	r0, [pc, #560]	; (8000998 <SPI_Pin+0x4a8>)
 8000766:	f7ff fdc5 	bl	80002f4 <GPIO_Pin_Init>
			if(config->miso_pin == SPI1_MISO.PB4) GPIO_Pin_Init(GPIOB, 4, MODE.Alternate_Function, Output_Type.Push_Pull, Speed.Very_High_Speed, Pull.No_Pull_Up_Down, Alternate_Functions.SPI_1);
 800076a:	687b      	ldr	r3, [r7, #4]
 800076c:	799b      	ldrb	r3, [r3, #6]
 800076e:	b29b      	uxth	r3, r3
 8000770:	2218      	movs	r2, #24
 8000772:	4293      	cmp	r3, r2
 8000774:	d10d      	bne.n	8000792 <SPI_Pin+0x2a2>
 8000776:	2002      	movs	r0, #2
 8000778:	2400      	movs	r4, #0
 800077a:	2303      	movs	r3, #3
 800077c:	2200      	movs	r2, #0
 800077e:	2105      	movs	r1, #5
 8000780:	9102      	str	r1, [sp, #8]
 8000782:	9201      	str	r2, [sp, #4]
 8000784:	9300      	str	r3, [sp, #0]
 8000786:	4623      	mov	r3, r4
 8000788:	4602      	mov	r2, r0
 800078a:	2104      	movs	r1, #4
 800078c:	4883      	ldr	r0, [pc, #524]	; (800099c <SPI_Pin+0x4ac>)
 800078e:	f7ff fdb1 	bl	80002f4 <GPIO_Pin_Init>
			config->Port -> CR1 |= SPI_CR1_BIDIMODE;
 8000792:	687b      	ldr	r3, [r7, #4]
 8000794:	681b      	ldr	r3, [r3, #0]
 8000796:	681a      	ldr	r2, [r3, #0]
 8000798:	687b      	ldr	r3, [r7, #4]
 800079a:	681b      	ldr	r3, [r3, #0]
 800079c:	f442 4200 	orr.w	r2, r2, #32768	; 0x8000
 80007a0:	601a      	str	r2, [r3, #0]
			config->Port -> CR1 &= ~SPI_CR1_BIDIOE;
 80007a2:	687b      	ldr	r3, [r7, #4]
 80007a4:	681b      	ldr	r3, [r3, #0]
 80007a6:	681a      	ldr	r2, [r3, #0]
 80007a8:	687b      	ldr	r3, [r7, #4]
 80007aa:	681b      	ldr	r3, [r3, #0]
 80007ac:	f422 4280 	bic.w	r2, r2, #16384	; 0x4000
 80007b0:	601a      	str	r2, [r3, #0]
}
 80007b2:	e2c1      	b.n	8000d38 <SPI_Pin+0x848>
	else if(config -> Port == SPI2)
 80007b4:	687b      	ldr	r3, [r7, #4]
 80007b6:	681b      	ldr	r3, [r3, #0]
 80007b8:	4a79      	ldr	r2, [pc, #484]	; (80009a0 <SPI_Pin+0x4b0>)
 80007ba:	4293      	cmp	r3, r2
 80007bc:	f040 815a 	bne.w	8000a74 <SPI_Pin+0x584>
		if(config->mode == 0)
 80007c0:	687b      	ldr	r3, [r7, #4]
 80007c2:	89db      	ldrh	r3, [r3, #14]
 80007c4:	2b00      	cmp	r3, #0
 80007c6:	f040 8081 	bne.w	80008cc <SPI_Pin+0x3dc>
			if(config->clock_pin == SPI2_CLK.PB10) GPIO_Pin_Init(GPIOB, 10, MODE.Alternate_Function, Output_Type.Push_Pull, Speed.Very_High_Speed, Pull.No_Pull_Up_Down, Alternate_Functions.SPI_2);
 80007ca:	687b      	ldr	r3, [r7, #4]
 80007cc:	791b      	ldrb	r3, [r3, #4]
 80007ce:	b29b      	uxth	r3, r3
 80007d0:	22d2      	movs	r2, #210	; 0xd2
 80007d2:	4293      	cmp	r3, r2
 80007d4:	d10d      	bne.n	80007f2 <SPI_Pin+0x302>
 80007d6:	2002      	movs	r0, #2
 80007d8:	2400      	movs	r4, #0
 80007da:	2303      	movs	r3, #3
 80007dc:	2200      	movs	r2, #0
 80007de:	2105      	movs	r1, #5
 80007e0:	9102      	str	r1, [sp, #8]
 80007e2:	9201      	str	r2, [sp, #4]
 80007e4:	9300      	str	r3, [sp, #0]
 80007e6:	4623      	mov	r3, r4
 80007e8:	4602      	mov	r2, r0
 80007ea:	210a      	movs	r1, #10
 80007ec:	486b      	ldr	r0, [pc, #428]	; (800099c <SPI_Pin+0x4ac>)
 80007ee:	f7ff fd81 	bl	80002f4 <GPIO_Pin_Init>
			if(config->clock_pin == SPI2_CLK.PB13) GPIO_Pin_Init(GPIOB, 13, MODE.Alternate_Function, Output_Type.Push_Pull, Speed.Very_High_Speed, Pull.No_Pull_Up_Down, Alternate_Functions.SPI_2);
 80007f2:	687b      	ldr	r3, [r7, #4]
 80007f4:	791b      	ldrb	r3, [r3, #4]
 80007f6:	b29b      	uxth	r3, r3
 80007f8:	22d5      	movs	r2, #213	; 0xd5
 80007fa:	4293      	cmp	r3, r2
 80007fc:	d10d      	bne.n	800081a <SPI_Pin+0x32a>
 80007fe:	2002      	movs	r0, #2
 8000800:	2400      	movs	r4, #0
 8000802:	2303      	movs	r3, #3
 8000804:	2200      	movs	r2, #0
 8000806:	2105      	movs	r1, #5
 8000808:	9102      	str	r1, [sp, #8]
 800080a:	9201      	str	r2, [sp, #4]
 800080c:	9300      	str	r3, [sp, #0]
 800080e:	4623      	mov	r3, r4
 8000810:	4602      	mov	r2, r0
 8000812:	210d      	movs	r1, #13
 8000814:	4861      	ldr	r0, [pc, #388]	; (800099c <SPI_Pin+0x4ac>)
 8000816:	f7ff fd6d 	bl	80002f4 <GPIO_Pin_Init>
			if(config->miso_pin == SPI2_MISO.PB14) GPIO_Pin_Init(GPIOB, 14, MODE.Alternate_Function, Output_Type.Push_Pull, Speed.Very_High_Speed, Pull.No_Pull_Up_Down, Alternate_Functions.SPI_2);
 800081a:	687b      	ldr	r3, [r7, #4]
 800081c:	799b      	ldrb	r3, [r3, #6]
 800081e:	b29b      	uxth	r3, r3
 8000820:	22d6      	movs	r2, #214	; 0xd6
 8000822:	4293      	cmp	r3, r2
 8000824:	d10d      	bne.n	8000842 <SPI_Pin+0x352>
 8000826:	2002      	movs	r0, #2
 8000828:	2400      	movs	r4, #0
 800082a:	2303      	movs	r3, #3
 800082c:	2200      	movs	r2, #0
 800082e:	2105      	movs	r1, #5
 8000830:	9102      	str	r1, [sp, #8]
 8000832:	9201      	str	r2, [sp, #4]
 8000834:	9300      	str	r3, [sp, #0]
 8000836:	4623      	mov	r3, r4
 8000838:	4602      	mov	r2, r0
 800083a:	210e      	movs	r1, #14
 800083c:	4857      	ldr	r0, [pc, #348]	; (800099c <SPI_Pin+0x4ac>)
 800083e:	f7ff fd59 	bl	80002f4 <GPIO_Pin_Init>
			if(config->miso_pin == SPI2_MISO.PC2) GPIO_Pin_Init(GPIOC, 2, MODE.Alternate_Function, Output_Type.Push_Pull, Speed.Very_High_Speed, Pull.No_Pull_Up_Down, Alternate_Functions.SPI_2);
 8000842:	687b      	ldr	r3, [r7, #4]
 8000844:	799b      	ldrb	r3, [r3, #6]
 8000846:	b29b      	uxth	r3, r3
 8000848:	2220      	movs	r2, #32
 800084a:	4293      	cmp	r3, r2
 800084c:	d10d      	bne.n	800086a <SPI_Pin+0x37a>
 800084e:	2002      	movs	r0, #2
 8000850:	2400      	movs	r4, #0
 8000852:	2303      	movs	r3, #3
 8000854:	2200      	movs	r2, #0
 8000856:	2105      	movs	r1, #5
 8000858:	9102      	str	r1, [sp, #8]
 800085a:	9201      	str	r2, [sp, #4]
 800085c:	9300      	str	r3, [sp, #0]
 800085e:	4623      	mov	r3, r4
 8000860:	4602      	mov	r2, r0
 8000862:	2102      	movs	r1, #2
 8000864:	484f      	ldr	r0, [pc, #316]	; (80009a4 <SPI_Pin+0x4b4>)
 8000866:	f7ff fd45 	bl	80002f4 <GPIO_Pin_Init>
			if(config->mosi_pin == SPI2_MOSI.PB15) GPIO_Pin_Init(GPIOB, 15, MODE.Alternate_Function, Output_Type.Push_Pull, Speed.Very_High_Speed, Pull.No_Pull_Up_Down, Alternate_Functions.SPI_2);
 800086a:	687b      	ldr	r3, [r7, #4]
 800086c:	795b      	ldrb	r3, [r3, #5]
 800086e:	b29b      	uxth	r3, r3
 8000870:	22d7      	movs	r2, #215	; 0xd7
 8000872:	4293      	cmp	r3, r2
 8000874:	d10d      	bne.n	8000892 <SPI_Pin+0x3a2>
 8000876:	2002      	movs	r0, #2
 8000878:	2400      	movs	r4, #0
 800087a:	2303      	movs	r3, #3
 800087c:	2200      	movs	r2, #0
 800087e:	2105      	movs	r1, #5
 8000880:	9102      	str	r1, [sp, #8]
 8000882:	9201      	str	r2, [sp, #4]
 8000884:	9300      	str	r3, [sp, #0]
 8000886:	4623      	mov	r3, r4
 8000888:	4602      	mov	r2, r0
 800088a:	210f      	movs	r1, #15
 800088c:	4843      	ldr	r0, [pc, #268]	; (800099c <SPI_Pin+0x4ac>)
 800088e:	f7ff fd31 	bl	80002f4 <GPIO_Pin_Init>
			if(config->mosi_pin == SPI2_MOSI.PC3) GPIO_Pin_Init(GPIOC, 3, MODE.Alternate_Function, Output_Type.Push_Pull, Speed.Very_High_Speed, Pull.No_Pull_Up_Down, Alternate_Functions.SPI_2);
 8000892:	687b      	ldr	r3, [r7, #4]
 8000894:	795b      	ldrb	r3, [r3, #5]
 8000896:	b29b      	uxth	r3, r3
 8000898:	2221      	movs	r2, #33	; 0x21
 800089a:	4293      	cmp	r3, r2
 800089c:	d10d      	bne.n	80008ba <SPI_Pin+0x3ca>
 800089e:	2002      	movs	r0, #2
 80008a0:	2400      	movs	r4, #0
 80008a2:	2303      	movs	r3, #3
 80008a4:	2200      	movs	r2, #0
 80008a6:	2105      	movs	r1, #5
 80008a8:	9102      	str	r1, [sp, #8]
 80008aa:	9201      	str	r2, [sp, #4]
 80008ac:	9300      	str	r3, [sp, #0]
 80008ae:	4623      	mov	r3, r4
 80008b0:	4602      	mov	r2, r0
 80008b2:	2103      	movs	r1, #3
 80008b4:	483b      	ldr	r0, [pc, #236]	; (80009a4 <SPI_Pin+0x4b4>)
 80008b6:	f7ff fd1d 	bl	80002f4 <GPIO_Pin_Init>
			config->Port -> CR1 &= ~SPI_CR1_BIDIMODE;
 80008ba:	687b      	ldr	r3, [r7, #4]
 80008bc:	681b      	ldr	r3, [r3, #0]
 80008be:	681a      	ldr	r2, [r3, #0]
 80008c0:	687b      	ldr	r3, [r7, #4]
 80008c2:	681b      	ldr	r3, [r3, #0]
 80008c4:	f422 4200 	bic.w	r2, r2, #32768	; 0x8000
 80008c8:	601a      	str	r2, [r3, #0]
}
 80008ca:	e235      	b.n	8000d38 <SPI_Pin+0x848>
		else if(config->mode == 1)
 80008cc:	687b      	ldr	r3, [r7, #4]
 80008ce:	89db      	ldrh	r3, [r3, #14]
 80008d0:	2b01      	cmp	r3, #1
 80008d2:	d169      	bne.n	80009a8 <SPI_Pin+0x4b8>
			if(config->clock_pin == SPI2_CLK.PB10) GPIO_Pin_Init(GPIOB, 10, MODE.Alternate_Function, Output_Type.Push_Pull, Speed.Very_High_Speed, Pull.No_Pull_Up_Down, Alternate_Functions.SPI_2);
 80008d4:	687b      	ldr	r3, [r7, #4]
 80008d6:	791b      	ldrb	r3, [r3, #4]
 80008d8:	b29b      	uxth	r3, r3
 80008da:	22d2      	movs	r2, #210	; 0xd2
 80008dc:	4293      	cmp	r3, r2
 80008de:	d10d      	bne.n	80008fc <SPI_Pin+0x40c>
 80008e0:	2002      	movs	r0, #2
 80008e2:	2400      	movs	r4, #0
 80008e4:	2303      	movs	r3, #3
 80008e6:	2200      	movs	r2, #0
 80008e8:	2105      	movs	r1, #5
 80008ea:	9102      	str	r1, [sp, #8]
 80008ec:	9201      	str	r2, [sp, #4]
 80008ee:	9300      	str	r3, [sp, #0]
 80008f0:	4623      	mov	r3, r4
 80008f2:	4602      	mov	r2, r0
 80008f4:	210a      	movs	r1, #10
 80008f6:	4829      	ldr	r0, [pc, #164]	; (800099c <SPI_Pin+0x4ac>)
 80008f8:	f7ff fcfc 	bl	80002f4 <GPIO_Pin_Init>
			if(config->clock_pin == SPI2_CLK.PB13) GPIO_Pin_Init(GPIOB, 13, MODE.Alternate_Function, Output_Type.Push_Pull, Speed.Very_High_Speed, Pull.No_Pull_Up_Down, Alternate_Functions.SPI_2);
 80008fc:	687b      	ldr	r3, [r7, #4]
 80008fe:	791b      	ldrb	r3, [r3, #4]
 8000900:	b29b      	uxth	r3, r3
 8000902:	22d5      	movs	r2, #213	; 0xd5
 8000904:	4293      	cmp	r3, r2
 8000906:	d10d      	bne.n	8000924 <SPI_Pin+0x434>
 8000908:	2002      	movs	r0, #2
 800090a:	2400      	movs	r4, #0
 800090c:	2303      	movs	r3, #3
 800090e:	2200      	movs	r2, #0
 8000910:	2105      	movs	r1, #5
 8000912:	9102      	str	r1, [sp, #8]
 8000914:	9201      	str	r2, [sp, #4]
 8000916:	9300      	str	r3, [sp, #0]
 8000918:	4623      	mov	r3, r4
 800091a:	4602      	mov	r2, r0
 800091c:	210d      	movs	r1, #13
 800091e:	481f      	ldr	r0, [pc, #124]	; (800099c <SPI_Pin+0x4ac>)
 8000920:	f7ff fce8 	bl	80002f4 <GPIO_Pin_Init>
			if(config->clock_pin == SPI2_CLK.PB10) GPIO_Pin_Init(GPIOB, 10, MODE.Alternate_Function, Output_Type.Push_Pull, Speed.Very_High_Speed, Pull.No_Pull_Up_Down, Alternate_Functions.SPI_2);
 8000924:	687b      	ldr	r3, [r7, #4]
 8000926:	791b      	ldrb	r3, [r3, #4]
 8000928:	b29b      	uxth	r3, r3
 800092a:	22d2      	movs	r2, #210	; 0xd2
 800092c:	4293      	cmp	r3, r2
 800092e:	d10d      	bne.n	800094c <SPI_Pin+0x45c>
 8000930:	2002      	movs	r0, #2
 8000932:	2400      	movs	r4, #0
 8000934:	2303      	movs	r3, #3
 8000936:	2200      	movs	r2, #0
 8000938:	2105      	movs	r1, #5
 800093a:	9102      	str	r1, [sp, #8]
 800093c:	9201      	str	r2, [sp, #4]
 800093e:	9300      	str	r3, [sp, #0]
 8000940:	4623      	mov	r3, r4
 8000942:	4602      	mov	r2, r0
 8000944:	210a      	movs	r1, #10
 8000946:	4815      	ldr	r0, [pc, #84]	; (800099c <SPI_Pin+0x4ac>)
 8000948:	f7ff fcd4 	bl	80002f4 <GPIO_Pin_Init>
			if(config->clock_pin == SPI2_CLK.PB13) GPIO_Pin_Init(GPIOB, 13, MODE.Alternate_Function, Output_Type.Push_Pull, Speed.Very_High_Speed, Pull.No_Pull_Up_Down, Alternate_Functions.SPI_2);
 800094c:	687b      	ldr	r3, [r7, #4]
 800094e:	791b      	ldrb	r3, [r3, #4]
 8000950:	b29b      	uxth	r3, r3
 8000952:	22d5      	movs	r2, #213	; 0xd5
 8000954:	4293      	cmp	r3, r2
 8000956:	d10d      	bne.n	8000974 <SPI_Pin+0x484>
 8000958:	2002      	movs	r0, #2
 800095a:	2400      	movs	r4, #0
 800095c:	2303      	movs	r3, #3
 800095e:	2200      	movs	r2, #0
 8000960:	2105      	movs	r1, #5
 8000962:	9102      	str	r1, [sp, #8]
 8000964:	9201      	str	r2, [sp, #4]
 8000966:	9300      	str	r3, [sp, #0]
 8000968:	4623      	mov	r3, r4
 800096a:	4602      	mov	r2, r0
 800096c:	210d      	movs	r1, #13
 800096e:	480b      	ldr	r0, [pc, #44]	; (800099c <SPI_Pin+0x4ac>)
 8000970:	f7ff fcc0 	bl	80002f4 <GPIO_Pin_Init>
			config->Port -> CR1 |= SPI_CR1_BIDIMODE;
 8000974:	687b      	ldr	r3, [r7, #4]
 8000976:	681b      	ldr	r3, [r3, #0]
 8000978:	681a      	ldr	r2, [r3, #0]
 800097a:	687b      	ldr	r3, [r7, #4]
 800097c:	681b      	ldr	r3, [r3, #0]
 800097e:	f442 4200 	orr.w	r2, r2, #32768	; 0x8000
 8000982:	601a      	str	r2, [r3, #0]
			config->Port -> CR1 |= SPI_CR1_BIDIOE;
 8000984:	687b      	ldr	r3, [r7, #4]
 8000986:	681b      	ldr	r3, [r3, #0]
 8000988:	681a      	ldr	r2, [r3, #0]
 800098a:	687b      	ldr	r3, [r7, #4]
 800098c:	681b      	ldr	r3, [r3, #0]
 800098e:	f442 4280 	orr.w	r2, r2, #16384	; 0x4000
 8000992:	601a      	str	r2, [r3, #0]
}
 8000994:	e1d0      	b.n	8000d38 <SPI_Pin+0x848>
 8000996:	bf00      	nop
 8000998:	40020000 	.word	0x40020000
 800099c:	40020400 	.word	0x40020400
 80009a0:	40003800 	.word	0x40003800
 80009a4:	40020800 	.word	0x40020800
		else if(config->mode == 2)
 80009a8:	687b      	ldr	r3, [r7, #4]
 80009aa:	89db      	ldrh	r3, [r3, #14]
 80009ac:	2b02      	cmp	r3, #2
 80009ae:	f040 81c3 	bne.w	8000d38 <SPI_Pin+0x848>
			if(config->clock_pin == SPI2_CLK.PB10) GPIO_Pin_Init(GPIOB, 10, MODE.Alternate_Function, Output_Type.Push_Pull, Speed.Very_High_Speed, Pull.No_Pull_Up_Down, Alternate_Functions.SPI_2);
 80009b2:	687b      	ldr	r3, [r7, #4]
 80009b4:	791b      	ldrb	r3, [r3, #4]
 80009b6:	b29b      	uxth	r3, r3
 80009b8:	22d2      	movs	r2, #210	; 0xd2
 80009ba:	4293      	cmp	r3, r2
 80009bc:	d10d      	bne.n	80009da <SPI_Pin+0x4ea>
 80009be:	2002      	movs	r0, #2
 80009c0:	2400      	movs	r4, #0
 80009c2:	2303      	movs	r3, #3
 80009c4:	2200      	movs	r2, #0
 80009c6:	2105      	movs	r1, #5
 80009c8:	9102      	str	r1, [sp, #8]
 80009ca:	9201      	str	r2, [sp, #4]
 80009cc:	9300      	str	r3, [sp, #0]
 80009ce:	4623      	mov	r3, r4
 80009d0:	4602      	mov	r2, r0
 80009d2:	210a      	movs	r1, #10
 80009d4:	48a2      	ldr	r0, [pc, #648]	; (8000c60 <SPI_Pin+0x770>)
 80009d6:	f7ff fc8d 	bl	80002f4 <GPIO_Pin_Init>
			if(config->clock_pin == SPI2_CLK.PB13) GPIO_Pin_Init(GPIOB, 13, MODE.Alternate_Function, Output_Type.Push_Pull, Speed.Very_High_Speed, Pull.No_Pull_Up_Down, Alternate_Functions.SPI_2);
 80009da:	687b      	ldr	r3, [r7, #4]
 80009dc:	791b      	ldrb	r3, [r3, #4]
 80009de:	b29b      	uxth	r3, r3
 80009e0:	22d5      	movs	r2, #213	; 0xd5
 80009e2:	4293      	cmp	r3, r2
 80009e4:	d10d      	bne.n	8000a02 <SPI_Pin+0x512>
 80009e6:	2002      	movs	r0, #2
 80009e8:	2400      	movs	r4, #0
 80009ea:	2303      	movs	r3, #3
 80009ec:	2200      	movs	r2, #0
 80009ee:	2105      	movs	r1, #5
 80009f0:	9102      	str	r1, [sp, #8]
 80009f2:	9201      	str	r2, [sp, #4]
 80009f4:	9300      	str	r3, [sp, #0]
 80009f6:	4623      	mov	r3, r4
 80009f8:	4602      	mov	r2, r0
 80009fa:	210d      	movs	r1, #13
 80009fc:	4898      	ldr	r0, [pc, #608]	; (8000c60 <SPI_Pin+0x770>)
 80009fe:	f7ff fc79 	bl	80002f4 <GPIO_Pin_Init>
			if(config->miso_pin == SPI2_MISO.PB14) GPIO_Pin_Init(GPIOB, 14, MODE.Alternate_Function, Output_Type.Push_Pull, Speed.Very_High_Speed, Pull.No_Pull_Up_Down, Alternate_Functions.SPI_2);
 8000a02:	687b      	ldr	r3, [r7, #4]
 8000a04:	799b      	ldrb	r3, [r3, #6]
 8000a06:	b29b      	uxth	r3, r3
 8000a08:	22d6      	movs	r2, #214	; 0xd6
 8000a0a:	4293      	cmp	r3, r2
 8000a0c:	d10d      	bne.n	8000a2a <SPI_Pin+0x53a>
 8000a0e:	2002      	movs	r0, #2
 8000a10:	2400      	movs	r4, #0
 8000a12:	2303      	movs	r3, #3
 8000a14:	2200      	movs	r2, #0
 8000a16:	2105      	movs	r1, #5
 8000a18:	9102      	str	r1, [sp, #8]
 8000a1a:	9201      	str	r2, [sp, #4]
 8000a1c:	9300      	str	r3, [sp, #0]
 8000a1e:	4623      	mov	r3, r4
 8000a20:	4602      	mov	r2, r0
 8000a22:	210e      	movs	r1, #14
 8000a24:	488e      	ldr	r0, [pc, #568]	; (8000c60 <SPI_Pin+0x770>)
 8000a26:	f7ff fc65 	bl	80002f4 <GPIO_Pin_Init>
			if(config->miso_pin == SPI2_MISO.PC2) GPIO_Pin_Init(GPIOC, 2, MODE.Alternate_Function, Output_Type.Push_Pull, Speed.Very_High_Speed, Pull.No_Pull_Up_Down, Alternate_Functions.SPI_2);
 8000a2a:	687b      	ldr	r3, [r7, #4]
 8000a2c:	799b      	ldrb	r3, [r3, #6]
 8000a2e:	b29b      	uxth	r3, r3
 8000a30:	2220      	movs	r2, #32
 8000a32:	4293      	cmp	r3, r2
 8000a34:	d10d      	bne.n	8000a52 <SPI_Pin+0x562>
 8000a36:	2002      	movs	r0, #2
 8000a38:	2400      	movs	r4, #0
 8000a3a:	2303      	movs	r3, #3
 8000a3c:	2200      	movs	r2, #0
 8000a3e:	2105      	movs	r1, #5
 8000a40:	9102      	str	r1, [sp, #8]
 8000a42:	9201      	str	r2, [sp, #4]
 8000a44:	9300      	str	r3, [sp, #0]
 8000a46:	4623      	mov	r3, r4
 8000a48:	4602      	mov	r2, r0
 8000a4a:	2102      	movs	r1, #2
 8000a4c:	4885      	ldr	r0, [pc, #532]	; (8000c64 <SPI_Pin+0x774>)
 8000a4e:	f7ff fc51 	bl	80002f4 <GPIO_Pin_Init>
			config->Port -> CR1 |= SPI_CR1_BIDIMODE;
 8000a52:	687b      	ldr	r3, [r7, #4]
 8000a54:	681b      	ldr	r3, [r3, #0]
 8000a56:	681a      	ldr	r2, [r3, #0]
 8000a58:	687b      	ldr	r3, [r7, #4]
 8000a5a:	681b      	ldr	r3, [r3, #0]
 8000a5c:	f442 4200 	orr.w	r2, r2, #32768	; 0x8000
 8000a60:	601a      	str	r2, [r3, #0]
			config->Port -> CR1 &= ~SPI_CR1_BIDIOE;
 8000a62:	687b      	ldr	r3, [r7, #4]
 8000a64:	681b      	ldr	r3, [r3, #0]
 8000a66:	681a      	ldr	r2, [r3, #0]
 8000a68:	687b      	ldr	r3, [r7, #4]
 8000a6a:	681b      	ldr	r3, [r3, #0]
 8000a6c:	f422 4280 	bic.w	r2, r2, #16384	; 0x4000
 8000a70:	601a      	str	r2, [r3, #0]
}
 8000a72:	e161      	b.n	8000d38 <SPI_Pin+0x848>
	else if(config -> Port == SPI3)
 8000a74:	687b      	ldr	r3, [r7, #4]
 8000a76:	681b      	ldr	r3, [r3, #0]
 8000a78:	4a7b      	ldr	r2, [pc, #492]	; (8000c68 <SPI_Pin+0x778>)
 8000a7a:	4293      	cmp	r3, r2
 8000a7c:	f040 815c 	bne.w	8000d38 <SPI_Pin+0x848>
		if(config->mode == 0)
 8000a80:	687b      	ldr	r3, [r7, #4]
 8000a82:	89db      	ldrh	r3, [r3, #14]
 8000a84:	2b00      	cmp	r3, #0
 8000a86:	f040 8084 	bne.w	8000b92 <SPI_Pin+0x6a2>
			if(config->clock_pin == SPI3_CLK.PB3) GPIO_Pin_Init(GPIOB, 3, MODE.Alternate_Function, Output_Type.Push_Pull, Speed.Very_High_Speed, Pull.No_Pull_Up_Down, Alternate_Functions.SPI_3);
 8000a8a:	687b      	ldr	r3, [r7, #4]
 8000a8c:	791b      	ldrb	r3, [r3, #4]
 8000a8e:	b29b      	uxth	r3, r3
 8000a90:	2217      	movs	r2, #23
 8000a92:	4293      	cmp	r3, r2
 8000a94:	d10d      	bne.n	8000ab2 <SPI_Pin+0x5c2>
 8000a96:	2002      	movs	r0, #2
 8000a98:	2400      	movs	r4, #0
 8000a9a:	2303      	movs	r3, #3
 8000a9c:	2200      	movs	r2, #0
 8000a9e:	2106      	movs	r1, #6
 8000aa0:	9102      	str	r1, [sp, #8]
 8000aa2:	9201      	str	r2, [sp, #4]
 8000aa4:	9300      	str	r3, [sp, #0]
 8000aa6:	4623      	mov	r3, r4
 8000aa8:	4602      	mov	r2, r0
 8000aaa:	2103      	movs	r1, #3
 8000aac:	486c      	ldr	r0, [pc, #432]	; (8000c60 <SPI_Pin+0x770>)
 8000aae:	f7ff fc21 	bl	80002f4 <GPIO_Pin_Init>
			if(config->clock_pin == SPI3_CLK.PC10) GPIO_Pin_Init(GPIOC, 10, MODE.Alternate_Function, Output_Type.Push_Pull, Speed.Very_High_Speed, Pull.No_Pull_Up_Down, Alternate_Functions.SPI_3);
 8000ab2:	687b      	ldr	r3, [r7, #4]
 8000ab4:	791b      	ldrb	r3, [r3, #4]
 8000ab6:	b29b      	uxth	r3, r3
 8000ab8:	f44f 729b 	mov.w	r2, #310	; 0x136
 8000abc:	4293      	cmp	r3, r2
 8000abe:	d10d      	bne.n	8000adc <SPI_Pin+0x5ec>
 8000ac0:	2002      	movs	r0, #2
 8000ac2:	2400      	movs	r4, #0
 8000ac4:	2303      	movs	r3, #3
 8000ac6:	2200      	movs	r2, #0
 8000ac8:	2106      	movs	r1, #6
 8000aca:	9102      	str	r1, [sp, #8]
 8000acc:	9201      	str	r2, [sp, #4]
 8000ace:	9300      	str	r3, [sp, #0]
 8000ad0:	4623      	mov	r3, r4
 8000ad2:	4602      	mov	r2, r0
 8000ad4:	210a      	movs	r1, #10
 8000ad6:	4863      	ldr	r0, [pc, #396]	; (8000c64 <SPI_Pin+0x774>)
 8000ad8:	f7ff fc0c 	bl	80002f4 <GPIO_Pin_Init>
			if(config->miso_pin == SPI3_MISO.PB4) GPIO_Pin_Init(GPIOB, 4, MODE.Alternate_Function, Output_Type.Push_Pull, Speed.Very_High_Speed, Pull.No_Pull_Up_Down, Alternate_Functions.SPI_3);
 8000adc:	687b      	ldr	r3, [r7, #4]
 8000ade:	799b      	ldrb	r3, [r3, #6]
 8000ae0:	b29b      	uxth	r3, r3
 8000ae2:	2218      	movs	r2, #24
 8000ae4:	4293      	cmp	r3, r2
 8000ae6:	d10d      	bne.n	8000b04 <SPI_Pin+0x614>
 8000ae8:	2002      	movs	r0, #2
 8000aea:	2400      	movs	r4, #0
 8000aec:	2303      	movs	r3, #3
 8000aee:	2200      	movs	r2, #0
 8000af0:	2106      	movs	r1, #6
 8000af2:	9102      	str	r1, [sp, #8]
 8000af4:	9201      	str	r2, [sp, #4]
 8000af6:	9300      	str	r3, [sp, #0]
 8000af8:	4623      	mov	r3, r4
 8000afa:	4602      	mov	r2, r0
 8000afc:	2104      	movs	r1, #4
 8000afe:	4858      	ldr	r0, [pc, #352]	; (8000c60 <SPI_Pin+0x770>)
 8000b00:	f7ff fbf8 	bl	80002f4 <GPIO_Pin_Init>
			if(config->miso_pin == SPI3_MISO.PC11) GPIO_Pin_Init(GPIOC,11, MODE.Alternate_Function, Output_Type.Push_Pull, Speed.Very_High_Speed, Pull.No_Pull_Up_Down, Alternate_Functions.SPI_3);
 8000b04:	687b      	ldr	r3, [r7, #4]
 8000b06:	799b      	ldrb	r3, [r3, #6]
 8000b08:	b29b      	uxth	r3, r3
 8000b0a:	f240 1237 	movw	r2, #311	; 0x137
 8000b0e:	4293      	cmp	r3, r2
 8000b10:	d10d      	bne.n	8000b2e <SPI_Pin+0x63e>
 8000b12:	2002      	movs	r0, #2
 8000b14:	2400      	movs	r4, #0
 8000b16:	2303      	movs	r3, #3
 8000b18:	2200      	movs	r2, #0
 8000b1a:	2106      	movs	r1, #6
 8000b1c:	9102      	str	r1, [sp, #8]
 8000b1e:	9201      	str	r2, [sp, #4]
 8000b20:	9300      	str	r3, [sp, #0]
 8000b22:	4623      	mov	r3, r4
 8000b24:	4602      	mov	r2, r0
 8000b26:	210b      	movs	r1, #11
 8000b28:	484e      	ldr	r0, [pc, #312]	; (8000c64 <SPI_Pin+0x774>)
 8000b2a:	f7ff fbe3 	bl	80002f4 <GPIO_Pin_Init>
			if(config->mosi_pin == SPI3_MOSI.PB5) GPIO_Pin_Init(GPIOB, 5, MODE.Alternate_Function, Output_Type.Push_Pull, Speed.Very_High_Speed, Pull.No_Pull_Up_Down, Alternate_Functions.SPI_3);
 8000b2e:	687b      	ldr	r3, [r7, #4]
 8000b30:	795b      	ldrb	r3, [r3, #5]
 8000b32:	b29b      	uxth	r3, r3
 8000b34:	2219      	movs	r2, #25
 8000b36:	4293      	cmp	r3, r2
 8000b38:	d10d      	bne.n	8000b56 <SPI_Pin+0x666>
 8000b3a:	2002      	movs	r0, #2
 8000b3c:	2400      	movs	r4, #0
 8000b3e:	2303      	movs	r3, #3
 8000b40:	2200      	movs	r2, #0
 8000b42:	2106      	movs	r1, #6
 8000b44:	9102      	str	r1, [sp, #8]
 8000b46:	9201      	str	r2, [sp, #4]
 8000b48:	9300      	str	r3, [sp, #0]
 8000b4a:	4623      	mov	r3, r4
 8000b4c:	4602      	mov	r2, r0
 8000b4e:	2105      	movs	r1, #5
 8000b50:	4843      	ldr	r0, [pc, #268]	; (8000c60 <SPI_Pin+0x770>)
 8000b52:	f7ff fbcf 	bl	80002f4 <GPIO_Pin_Init>
			if(config->mosi_pin == SPI3_MOSI.PC12) GPIO_Pin_Init(GPIOC, 12, MODE.Alternate_Function, Output_Type.Push_Pull, Speed.Very_High_Speed, Pull.No_Pull_Up_Down, Alternate_Functions.SPI_3);
 8000b56:	687b      	ldr	r3, [r7, #4]
 8000b58:	795b      	ldrb	r3, [r3, #5]
 8000b5a:	b29b      	uxth	r3, r3
 8000b5c:	f44f 729c 	mov.w	r2, #312	; 0x138
 8000b60:	4293      	cmp	r3, r2
 8000b62:	d10d      	bne.n	8000b80 <SPI_Pin+0x690>
 8000b64:	2002      	movs	r0, #2
 8000b66:	2400      	movs	r4, #0
 8000b68:	2303      	movs	r3, #3
 8000b6a:	2200      	movs	r2, #0
 8000b6c:	2106      	movs	r1, #6
 8000b6e:	9102      	str	r1, [sp, #8]
 8000b70:	9201      	str	r2, [sp, #4]
 8000b72:	9300      	str	r3, [sp, #0]
 8000b74:	4623      	mov	r3, r4
 8000b76:	4602      	mov	r2, r0
 8000b78:	210c      	movs	r1, #12
 8000b7a:	483a      	ldr	r0, [pc, #232]	; (8000c64 <SPI_Pin+0x774>)
 8000b7c:	f7ff fbba 	bl	80002f4 <GPIO_Pin_Init>
			config->Port -> CR1 &= ~SPI_CR1_BIDIMODE;
 8000b80:	687b      	ldr	r3, [r7, #4]
 8000b82:	681b      	ldr	r3, [r3, #0]
 8000b84:	681a      	ldr	r2, [r3, #0]
 8000b86:	687b      	ldr	r3, [r7, #4]
 8000b88:	681b      	ldr	r3, [r3, #0]
 8000b8a:	f422 4200 	bic.w	r2, r2, #32768	; 0x8000
 8000b8e:	601a      	str	r2, [r3, #0]
}
 8000b90:	e0d2      	b.n	8000d38 <SPI_Pin+0x848>
		else if(config->mode == 1)
 8000b92:	687b      	ldr	r3, [r7, #4]
 8000b94:	89db      	ldrh	r3, [r3, #14]
 8000b96:	2b01      	cmp	r3, #1
 8000b98:	d168      	bne.n	8000c6c <SPI_Pin+0x77c>
			if(config->clock_pin == SPI3_CLK.PB3) GPIO_Pin_Init(GPIOB, 3, MODE.Alternate_Function, Output_Type.Push_Pull, Speed.Very_High_Speed, Pull.No_Pull_Up_Down, Alternate_Functions.SPI_3);
 8000b9a:	687b      	ldr	r3, [r7, #4]
 8000b9c:	791b      	ldrb	r3, [r3, #4]
 8000b9e:	b29b      	uxth	r3, r3
 8000ba0:	2217      	movs	r2, #23
 8000ba2:	4293      	cmp	r3, r2
 8000ba4:	d10d      	bne.n	8000bc2 <SPI_Pin+0x6d2>
 8000ba6:	2002      	movs	r0, #2
 8000ba8:	2400      	movs	r4, #0
 8000baa:	2303      	movs	r3, #3
 8000bac:	2200      	movs	r2, #0
 8000bae:	2106      	movs	r1, #6
 8000bb0:	9102      	str	r1, [sp, #8]
 8000bb2:	9201      	str	r2, [sp, #4]
 8000bb4:	9300      	str	r3, [sp, #0]
 8000bb6:	4623      	mov	r3, r4
 8000bb8:	4602      	mov	r2, r0
 8000bba:	2103      	movs	r1, #3
 8000bbc:	4828      	ldr	r0, [pc, #160]	; (8000c60 <SPI_Pin+0x770>)
 8000bbe:	f7ff fb99 	bl	80002f4 <GPIO_Pin_Init>
			if(config->clock_pin == SPI3_CLK.PC10) GPIO_Pin_Init(GPIOC, 10, MODE.Alternate_Function, Output_Type.Push_Pull, Speed.Very_High_Speed, Pull.No_Pull_Up_Down, Alternate_Functions.SPI_3);
 8000bc2:	687b      	ldr	r3, [r7, #4]
 8000bc4:	791b      	ldrb	r3, [r3, #4]
 8000bc6:	b29b      	uxth	r3, r3
 8000bc8:	f44f 729b 	mov.w	r2, #310	; 0x136
 8000bcc:	4293      	cmp	r3, r2
 8000bce:	d10d      	bne.n	8000bec <SPI_Pin+0x6fc>
 8000bd0:	2002      	movs	r0, #2
 8000bd2:	2400      	movs	r4, #0
 8000bd4:	2303      	movs	r3, #3
 8000bd6:	2200      	movs	r2, #0
 8000bd8:	2106      	movs	r1, #6
 8000bda:	9102      	str	r1, [sp, #8]
 8000bdc:	9201      	str	r2, [sp, #4]
 8000bde:	9300      	str	r3, [sp, #0]
 8000be0:	4623      	mov	r3, r4
 8000be2:	4602      	mov	r2, r0
 8000be4:	210a      	movs	r1, #10
 8000be6:	481f      	ldr	r0, [pc, #124]	; (8000c64 <SPI_Pin+0x774>)
 8000be8:	f7ff fb84 	bl	80002f4 <GPIO_Pin_Init>
			if(config->miso_pin == SPI3_MISO.PB4) GPIO_Pin_Init(GPIOB, 4, MODE.Alternate_Function, Output_Type.Push_Pull, Speed.Very_High_Speed, Pull.No_Pull_Up_Down, Alternate_Functions.SPI_3);
 8000bec:	687b      	ldr	r3, [r7, #4]
 8000bee:	799b      	ldrb	r3, [r3, #6]
 8000bf0:	b29b      	uxth	r3, r3
 8000bf2:	2218      	movs	r2, #24
 8000bf4:	4293      	cmp	r3, r2
 8000bf6:	d10d      	bne.n	8000c14 <SPI_Pin+0x724>
 8000bf8:	2002      	movs	r0, #2
 8000bfa:	2400      	movs	r4, #0
 8000bfc:	2303      	movs	r3, #3
 8000bfe:	2200      	movs	r2, #0
 8000c00:	2106      	movs	r1, #6
 8000c02:	9102      	str	r1, [sp, #8]
 8000c04:	9201      	str	r2, [sp, #4]
 8000c06:	9300      	str	r3, [sp, #0]
 8000c08:	4623      	mov	r3, r4
 8000c0a:	4602      	mov	r2, r0
 8000c0c:	2104      	movs	r1, #4
 8000c0e:	4814      	ldr	r0, [pc, #80]	; (8000c60 <SPI_Pin+0x770>)
 8000c10:	f7ff fb70 	bl	80002f4 <GPIO_Pin_Init>
			if(config->miso_pin == SPI3_MISO.PC11) GPIO_Pin_Init(GPIOC,11, MODE.Alternate_Function, Output_Type.Push_Pull, Speed.Very_High_Speed, Pull.No_Pull_Up_Down, Alternate_Functions.SPI_3);
 8000c14:	687b      	ldr	r3, [r7, #4]
 8000c16:	799b      	ldrb	r3, [r3, #6]
 8000c18:	b29b      	uxth	r3, r3
 8000c1a:	f240 1237 	movw	r2, #311	; 0x137
 8000c1e:	4293      	cmp	r3, r2
 8000c20:	d10d      	bne.n	8000c3e <SPI_Pin+0x74e>
 8000c22:	2002      	movs	r0, #2
 8000c24:	2400      	movs	r4, #0
 8000c26:	2303      	movs	r3, #3
 8000c28:	2200      	movs	r2, #0
 8000c2a:	2106      	movs	r1, #6
 8000c2c:	9102      	str	r1, [sp, #8]
 8000c2e:	9201      	str	r2, [sp, #4]
 8000c30:	9300      	str	r3, [sp, #0]
 8000c32:	4623      	mov	r3, r4
 8000c34:	4602      	mov	r2, r0
 8000c36:	210b      	movs	r1, #11
 8000c38:	480a      	ldr	r0, [pc, #40]	; (8000c64 <SPI_Pin+0x774>)
 8000c3a:	f7ff fb5b 	bl	80002f4 <GPIO_Pin_Init>
			config->Port -> CR1 |= SPI_CR1_BIDIMODE;
 8000c3e:	687b      	ldr	r3, [r7, #4]
 8000c40:	681b      	ldr	r3, [r3, #0]
 8000c42:	681a      	ldr	r2, [r3, #0]
 8000c44:	687b      	ldr	r3, [r7, #4]
 8000c46:	681b      	ldr	r3, [r3, #0]
 8000c48:	f442 4200 	orr.w	r2, r2, #32768	; 0x8000
 8000c4c:	601a      	str	r2, [r3, #0]
			config->Port -> CR1 |= SPI_CR1_BIDIOE;
 8000c4e:	687b      	ldr	r3, [r7, #4]
 8000c50:	681b      	ldr	r3, [r3, #0]
 8000c52:	681a      	ldr	r2, [r3, #0]
 8000c54:	687b      	ldr	r3, [r7, #4]
 8000c56:	681b      	ldr	r3, [r3, #0]
 8000c58:	f442 4280 	orr.w	r2, r2, #16384	; 0x4000
 8000c5c:	601a      	str	r2, [r3, #0]
}
 8000c5e:	e06b      	b.n	8000d38 <SPI_Pin+0x848>
 8000c60:	40020400 	.word	0x40020400
 8000c64:	40020800 	.word	0x40020800
 8000c68:	40003c00 	.word	0x40003c00
		else if(config->mode == 2)
 8000c6c:	687b      	ldr	r3, [r7, #4]
 8000c6e:	89db      	ldrh	r3, [r3, #14]
 8000c70:	2b02      	cmp	r3, #2
 8000c72:	d161      	bne.n	8000d38 <SPI_Pin+0x848>
			if(config->clock_pin == SPI3_CLK.PB3) GPIO_Pin_Init(GPIOB, 3, MODE.Alternate_Function, Output_Type.Push_Pull, Speed.Very_High_Speed, Pull.No_Pull_Up_Down, Alternate_Functions.SPI_3);
 8000c74:	687b      	ldr	r3, [r7, #4]
 8000c76:	791b      	ldrb	r3, [r3, #4]
 8000c78:	b29b      	uxth	r3, r3
 8000c7a:	2217      	movs	r2, #23
 8000c7c:	4293      	cmp	r3, r2
 8000c7e:	d10d      	bne.n	8000c9c <SPI_Pin+0x7ac>
 8000c80:	2002      	movs	r0, #2
 8000c82:	2400      	movs	r4, #0
 8000c84:	2303      	movs	r3, #3
 8000c86:	2200      	movs	r2, #0
 8000c88:	2106      	movs	r1, #6
 8000c8a:	9102      	str	r1, [sp, #8]
 8000c8c:	9201      	str	r2, [sp, #4]
 8000c8e:	9300      	str	r3, [sp, #0]
 8000c90:	4623      	mov	r3, r4
 8000c92:	4602      	mov	r2, r0
 8000c94:	2103      	movs	r1, #3
 8000c96:	482a      	ldr	r0, [pc, #168]	; (8000d40 <SPI_Pin+0x850>)
 8000c98:	f7ff fb2c 	bl	80002f4 <GPIO_Pin_Init>
			if(config->clock_pin == SPI3_CLK.PC10) GPIO_Pin_Init(GPIOC, 10, MODE.Alternate_Function, Output_Type.Push_Pull, Speed.Very_High_Speed, Pull.No_Pull_Up_Down, Alternate_Functions.SPI_3);
 8000c9c:	687b      	ldr	r3, [r7, #4]
 8000c9e:	791b      	ldrb	r3, [r3, #4]
 8000ca0:	b29b      	uxth	r3, r3
 8000ca2:	f44f 729b 	mov.w	r2, #310	; 0x136
 8000ca6:	4293      	cmp	r3, r2
 8000ca8:	d10d      	bne.n	8000cc6 <SPI_Pin+0x7d6>
 8000caa:	2002      	movs	r0, #2
 8000cac:	2400      	movs	r4, #0
 8000cae:	2303      	movs	r3, #3
 8000cb0:	2200      	movs	r2, #0
 8000cb2:	2106      	movs	r1, #6
 8000cb4:	9102      	str	r1, [sp, #8]
 8000cb6:	9201      	str	r2, [sp, #4]
 8000cb8:	9300      	str	r3, [sp, #0]
 8000cba:	4623      	mov	r3, r4
 8000cbc:	4602      	mov	r2, r0
 8000cbe:	210a      	movs	r1, #10
 8000cc0:	4820      	ldr	r0, [pc, #128]	; (8000d44 <SPI_Pin+0x854>)
 8000cc2:	f7ff fb17 	bl	80002f4 <GPIO_Pin_Init>
			if(config->mosi_pin == SPI3_MOSI.PB5) GPIO_Pin_Init(GPIOB, 5, MODE.Alternate_Function, Output_Type.Push_Pull, Speed.Very_High_Speed, Pull.No_Pull_Up_Down, Alternate_Functions.SPI_3);
 8000cc6:	687b      	ldr	r3, [r7, #4]
 8000cc8:	795b      	ldrb	r3, [r3, #5]
 8000cca:	b29b      	uxth	r3, r3
 8000ccc:	2219      	movs	r2, #25
 8000cce:	4293      	cmp	r3, r2
 8000cd0:	d10d      	bne.n	8000cee <SPI_Pin+0x7fe>
 8000cd2:	2002      	movs	r0, #2
 8000cd4:	2400      	movs	r4, #0
 8000cd6:	2303      	movs	r3, #3
 8000cd8:	2200      	movs	r2, #0
 8000cda:	2106      	movs	r1, #6
 8000cdc:	9102      	str	r1, [sp, #8]
 8000cde:	9201      	str	r2, [sp, #4]
 8000ce0:	9300      	str	r3, [sp, #0]
 8000ce2:	4623      	mov	r3, r4
 8000ce4:	4602      	mov	r2, r0
 8000ce6:	2105      	movs	r1, #5
 8000ce8:	4815      	ldr	r0, [pc, #84]	; (8000d40 <SPI_Pin+0x850>)
 8000cea:	f7ff fb03 	bl	80002f4 <GPIO_Pin_Init>
			if(config->mosi_pin == SPI3_MOSI.PC12) GPIO_Pin_Init(GPIOC, 12, MODE.Alternate_Function, Output_Type.Push_Pull, Speed.Very_High_Speed, Pull.No_Pull_Up_Down, Alternate_Functions.SPI_3);
 8000cee:	687b      	ldr	r3, [r7, #4]
 8000cf0:	795b      	ldrb	r3, [r3, #5]
 8000cf2:	b29b      	uxth	r3, r3
 8000cf4:	f44f 729c 	mov.w	r2, #312	; 0x138
 8000cf8:	4293      	cmp	r3, r2
 8000cfa:	d10d      	bne.n	8000d18 <SPI_Pin+0x828>
 8000cfc:	2002      	movs	r0, #2
 8000cfe:	2400      	movs	r4, #0
 8000d00:	2303      	movs	r3, #3
 8000d02:	2200      	movs	r2, #0
 8000d04:	2106      	movs	r1, #6
 8000d06:	9102      	str	r1, [sp, #8]
 8000d08:	9201      	str	r2, [sp, #4]
 8000d0a:	9300      	str	r3, [sp, #0]
 8000d0c:	4623      	mov	r3, r4
 8000d0e:	4602      	mov	r2, r0
 8000d10:	210c      	movs	r1, #12
 8000d12:	480c      	ldr	r0, [pc, #48]	; (8000d44 <SPI_Pin+0x854>)
 8000d14:	f7ff faee 	bl	80002f4 <GPIO_Pin_Init>
			config->Port -> CR1 |= SPI_CR1_BIDIMODE;
 8000d18:	687b      	ldr	r3, [r7, #4]
 8000d1a:	681b      	ldr	r3, [r3, #0]
 8000d1c:	681a      	ldr	r2, [r3, #0]
 8000d1e:	687b      	ldr	r3, [r7, #4]
 8000d20:	681b      	ldr	r3, [r3, #0]
 8000d22:	f442 4200 	orr.w	r2, r2, #32768	; 0x8000
 8000d26:	601a      	str	r2, [r3, #0]
			config->Port -> CR1 &= ~SPI_CR1_BIDIOE;
 8000d28:	687b      	ldr	r3, [r7, #4]
 8000d2a:	681b      	ldr	r3, [r3, #0]
 8000d2c:	681a      	ldr	r2, [r3, #0]
 8000d2e:	687b      	ldr	r3, [r7, #4]
 8000d30:	681b      	ldr	r3, [r3, #0]
 8000d32:	f422 4280 	bic.w	r2, r2, #16384	; 0x4000
 8000d36:	601a      	str	r2, [r3, #0]
}
 8000d38:	bf00      	nop
 8000d3a:	370c      	adds	r7, #12
 8000d3c:	46bd      	mov	sp, r7
 8000d3e:	bd90      	pop	{r4, r7, pc}
 8000d40:	40020400 	.word	0x40020400
 8000d44:	40020800 	.word	0x40020800

08000d48 <SPI_Init>:


void SPI_Init(SPI_Config *config)
{
 8000d48:	b5f0      	push	{r4, r5, r6, r7, lr}
 8000d4a:	b087      	sub	sp, #28
 8000d4c:	af04      	add	r7, sp, #16
 8000d4e:	6078      	str	r0, [r7, #4]
	if(config->type == SPI_Type.Master){
 8000d50:	687b      	ldr	r3, [r7, #4]
 8000d52:	8b1b      	ldrh	r3, [r3, #24]
 8000d54:	2204      	movs	r2, #4
 8000d56:	4293      	cmp	r3, r2
 8000d58:	d10f      	bne.n	8000d7a <SPI_Init+0x32>
		GPIO_Pin_Init(config->NSS_Port, config->NSS_Pin, MODE.General_Purpose_Output, Output_Type.Push_Pull, Speed.Very_High_Speed, Pull.Pull_Up, Alternate_Functions.None);
 8000d5a:	687b      	ldr	r3, [r7, #4]
 8000d5c:	6898      	ldr	r0, [r3, #8]
 8000d5e:	687b      	ldr	r3, [r7, #4]
 8000d60:	7b19      	ldrb	r1, [r3, #12]
 8000d62:	2501      	movs	r5, #1
 8000d64:	2600      	movs	r6, #0
 8000d66:	2303      	movs	r3, #3
 8000d68:	2201      	movs	r2, #1
 8000d6a:	2400      	movs	r4, #0
 8000d6c:	9402      	str	r4, [sp, #8]
 8000d6e:	9201      	str	r2, [sp, #4]
 8000d70:	9300      	str	r3, [sp, #0]
 8000d72:	4633      	mov	r3, r6
 8000d74:	462a      	mov	r2, r5
 8000d76:	f7ff fabd 	bl	80002f4 <GPIO_Pin_Init>
	}
	if(config->type == SPI_Type.Slave){
 8000d7a:	687b      	ldr	r3, [r7, #4]
 8000d7c:	8b1b      	ldrh	r3, [r3, #24]
 8000d7e:	2200      	movs	r2, #0
 8000d80:	4293      	cmp	r3, r2
 8000d82:	d10f      	bne.n	8000da4 <SPI_Init+0x5c>
		GPIO_Pin_Init(config->NSS_Port, config->NSS_Pin, MODE.Input, Output_Type.Push_Pull, Speed.Very_High_Speed, Pull.Pull_Up, Alternate_Functions.None);
 8000d84:	687b      	ldr	r3, [r7, #4]
 8000d86:	6898      	ldr	r0, [r3, #8]
 8000d88:	687b      	ldr	r3, [r7, #4]
 8000d8a:	7b19      	ldrb	r1, [r3, #12]
 8000d8c:	2500      	movs	r5, #0
 8000d8e:	2600      	movs	r6, #0
 8000d90:	2303      	movs	r3, #3
 8000d92:	2201      	movs	r2, #1
 8000d94:	2400      	movs	r4, #0
 8000d96:	9402      	str	r4, [sp, #8]
 8000d98:	9201      	str	r2, [sp, #4]
 8000d9a:	9300      	str	r3, [sp, #0]
 8000d9c:	4633      	mov	r3, r6
 8000d9e:	462a      	mov	r2, r5
 8000da0:	f7ff faa8 	bl	80002f4 <GPIO_Pin_Init>
	}

	SPI_Clock_Enable(config);
 8000da4:	6878      	ldr	r0, [r7, #4]
 8000da6:	f7ff fb05 	bl	80003b4 <SPI_Clock_Enable>
	SPI_Pin(config);
 8000daa:	6878      	ldr	r0, [r7, #4]
 8000dac:	f7ff fba0 	bl	80004f0 <SPI_Pin>

	config->Port->CR1 |= config->clock_phase | config->clock_polarity |
 8000db0:	687b      	ldr	r3, [r7, #4]
 8000db2:	681b      	ldr	r3, [r3, #0]
 8000db4:	681a      	ldr	r2, [r3, #0]
 8000db6:	687b      	ldr	r3, [r7, #4]
 8000db8:	8b99      	ldrh	r1, [r3, #28]
 8000dba:	687b      	ldr	r3, [r7, #4]
 8000dbc:	8b5b      	ldrh	r3, [r3, #26]
					config->type | config->frame_format |
					config->data_format | config->crc ;
 8000dbe:	430b      	orrs	r3, r1
 8000dc0:	b299      	uxth	r1, r3
					config->type | config->frame_format |
 8000dc2:	687b      	ldr	r3, [r7, #4]
 8000dc4:	8b1b      	ldrh	r3, [r3, #24]
					config->data_format | config->crc ;
 8000dc6:	430b      	orrs	r3, r1
 8000dc8:	b299      	uxth	r1, r3
					config->type | config->frame_format |
 8000dca:	687b      	ldr	r3, [r7, #4]
 8000dcc:	8a9b      	ldrh	r3, [r3, #20]
					config->data_format | config->crc ;
 8000dce:	430b      	orrs	r3, r1
 8000dd0:	b299      	uxth	r1, r3
 8000dd2:	687b      	ldr	r3, [r7, #4]
 8000dd4:	8a5b      	ldrh	r3, [r3, #18]
 8000dd6:	430b      	orrs	r3, r1
 8000dd8:	b299      	uxth	r1, r3
 8000dda:	687b      	ldr	r3, [r7, #4]
 8000ddc:	8a1b      	ldrh	r3, [r3, #16]
 8000dde:	430b      	orrs	r3, r1
 8000de0:	b29b      	uxth	r3, r3
 8000de2:	4619      	mov	r1, r3
	config->Port->CR1 |= config->clock_phase | config->clock_polarity |
 8000de4:	687b      	ldr	r3, [r7, #4]
 8000de6:	681b      	ldr	r3, [r3, #0]
 8000de8:	430a      	orrs	r2, r1
 8000dea:	601a      	str	r2, [r3, #0]
	config->Port->CR2 |= config->dma | config->interrupt;
 8000dec:	687b      	ldr	r3, [r7, #4]
 8000dee:	681b      	ldr	r3, [r3, #0]
 8000df0:	685a      	ldr	r2, [r3, #4]
 8000df2:	687b      	ldr	r3, [r7, #4]
 8000df4:	8c19      	ldrh	r1, [r3, #32]
 8000df6:	687b      	ldr	r3, [r7, #4]
 8000df8:	8bdb      	ldrh	r3, [r3, #30]
 8000dfa:	430b      	orrs	r3, r1
 8000dfc:	b29b      	uxth	r3, r3
 8000dfe:	4619      	mov	r1, r3
 8000e00:	687b      	ldr	r3, [r7, #4]
 8000e02:	681b      	ldr	r3, [r3, #0]
 8000e04:	430a      	orrs	r2, r1
 8000e06:	605a      	str	r2, [r3, #4]

//	if(config->Port == SPI1)config->speed = (SystemCoreClock/2)/(2*2^(config->prescaler));
//	else config->speed = (SystemCoreClock/4)/(2*2^(config->prescaler));

	config -> Port -> CR1 |= config->prescaler << SPI_CR1_BR_Pos;
 8000e08:	687b      	ldr	r3, [r7, #4]
 8000e0a:	681b      	ldr	r3, [r3, #0]
 8000e0c:	681a      	ldr	r2, [r3, #0]
 8000e0e:	687b      	ldr	r3, [r7, #4]
 8000e10:	8adb      	ldrh	r3, [r3, #22]
 8000e12:	00db      	lsls	r3, r3, #3
 8000e14:	4619      	mov	r1, r3
 8000e16:	687b      	ldr	r3, [r7, #4]
 8000e18:	681b      	ldr	r3, [r3, #0]
 8000e1a:	430a      	orrs	r2, r1
 8000e1c:	601a      	str	r2, [r3, #0]
	config->Port -> CR1 &= ~SPI_CR1_SSM ;
 8000e1e:	687b      	ldr	r3, [r7, #4]
 8000e20:	681b      	ldr	r3, [r3, #0]
 8000e22:	681a      	ldr	r2, [r3, #0]
 8000e24:	687b      	ldr	r3, [r7, #4]
 8000e26:	681b      	ldr	r3, [r3, #0]
 8000e28:	f422 7200 	bic.w	r2, r2, #512	; 0x200
 8000e2c:	601a      	str	r2, [r3, #0]
	config->Port -> CR2 |=  SPI_CR2_SSOE ;
 8000e2e:	687b      	ldr	r3, [r7, #4]
 8000e30:	681b      	ldr	r3, [r3, #0]
 8000e32:	685a      	ldr	r2, [r3, #4]
 8000e34:	687b      	ldr	r3, [r7, #4]
 8000e36:	681b      	ldr	r3, [r3, #0]
 8000e38:	f042 0204 	orr.w	r2, r2, #4
 8000e3c:	605a      	str	r2, [r3, #4]
//			xDMA_TX.transfer_direction = DMA_Transfer_Direction.Peripheral_to_memory;
//			xDMA_TX.interrupts =  DMA_Interrupts.Disable;
//			DMA_Init(&xDMA_TX);
//		}
//	}
}
 8000e3e:	bf00      	nop
 8000e40:	370c      	adds	r7, #12
 8000e42:	46bd      	mov	sp, r7
 8000e44:	bdf0      	pop	{r4, r5, r6, r7, pc}

08000e46 <SPI_Enable>:

void SPI_Enable(SPI_Config *config)
{
 8000e46:	b480      	push	{r7}
 8000e48:	b083      	sub	sp, #12
 8000e4a:	af00      	add	r7, sp, #0
 8000e4c:	6078      	str	r0, [r7, #4]
	config->Port -> CR1 |= SPI_CR1_SPE;
 8000e4e:	687b      	ldr	r3, [r7, #4]
 8000e50:	681b      	ldr	r3, [r3, #0]
 8000e52:	681a      	ldr	r2, [r3, #0]
 8000e54:	687b      	ldr	r3, [r7, #4]
 8000e56:	681b      	ldr	r3, [r3, #0]
 8000e58:	f042 0240 	orr.w	r2, r2, #64	; 0x40
 8000e5c:	601a      	str	r2, [r3, #0]
}
 8000e5e:	bf00      	nop
 8000e60:	370c      	adds	r7, #12
 8000e62:	46bd      	mov	sp, r7
 8000e64:	f85d 7b04 	ldr.w	r7, [sp], #4
 8000e68:	4770      	bx	lr

08000e6a <SPI_TRX_Byte>:
	if(config ->Port == SPI3)RCC -> APB1RSTR |= RCC_APB1RSTR_SPI3RST;
}


uint16_t SPI_TRX_Byte(SPI_Config *config,uint16_t tx_data)
{
 8000e6a:	b480      	push	{r7}
 8000e6c:	b085      	sub	sp, #20
 8000e6e:	af00      	add	r7, sp, #0
 8000e70:	6078      	str	r0, [r7, #4]
 8000e72:	460b      	mov	r3, r1
 8000e74:	807b      	strh	r3, [r7, #2]
	volatile uint16_t temp = 0;
 8000e76:	2300      	movs	r3, #0
 8000e78:	81fb      	strh	r3, [r7, #14]
	while (!(config->Port->SR & SPI_SR_TXE));
 8000e7a:	bf00      	nop
 8000e7c:	687b      	ldr	r3, [r7, #4]
 8000e7e:	681b      	ldr	r3, [r3, #0]
 8000e80:	689b      	ldr	r3, [r3, #8]
 8000e82:	f003 0302 	and.w	r3, r3, #2
 8000e86:	2b00      	cmp	r3, #0
 8000e88:	d0f8      	beq.n	8000e7c <SPI_TRX_Byte+0x12>
	config->Port -> DR = tx_data;
 8000e8a:	687b      	ldr	r3, [r7, #4]
 8000e8c:	681b      	ldr	r3, [r3, #0]
 8000e8e:	887a      	ldrh	r2, [r7, #2]
 8000e90:	60da      	str	r2, [r3, #12]
	while (!(config->Port->SR & SPI_SR_RXNE));
 8000e92:	bf00      	nop
 8000e94:	687b      	ldr	r3, [r7, #4]
 8000e96:	681b      	ldr	r3, [r3, #0]
 8000e98:	689b      	ldr	r3, [r3, #8]
 8000e9a:	f003 0301 	and.w	r3, r3, #1
 8000e9e:	2b00      	cmp	r3, #0
 8000ea0:	d0f8      	beq.n	8000e94 <SPI_TRX_Byte+0x2a>
	temp = config->Port -> DR;
 8000ea2:	687b      	ldr	r3, [r7, #4]
 8000ea4:	681b      	ldr	r3, [r3, #0]
 8000ea6:	68db      	ldr	r3, [r3, #12]
 8000ea8:	b29b      	uxth	r3, r3
 8000eaa:	81fb      	strh	r3, [r7, #14]
	while (!(config->Port->SR & SPI_SR_TXE));
 8000eac:	bf00      	nop
 8000eae:	687b      	ldr	r3, [r7, #4]
 8000eb0:	681b      	ldr	r3, [r3, #0]
 8000eb2:	689b      	ldr	r3, [r3, #8]
 8000eb4:	f003 0302 	and.w	r3, r3, #2
 8000eb8:	2b00      	cmp	r3, #0
 8000eba:	d0f8      	beq.n	8000eae <SPI_TRX_Byte+0x44>
	while (config->Port->SR & SPI_SR_BSY);
 8000ebc:	bf00      	nop
 8000ebe:	687b      	ldr	r3, [r7, #4]
 8000ec0:	681b      	ldr	r3, [r3, #0]
 8000ec2:	689b      	ldr	r3, [r3, #8]
 8000ec4:	f003 0380 	and.w	r3, r3, #128	; 0x80
 8000ec8:	2b00      	cmp	r3, #0
 8000eca:	d1f8      	bne.n	8000ebe <SPI_TRX_Byte+0x54>
	return temp;
 8000ecc:	89fb      	ldrh	r3, [r7, #14]
 8000ece:	b29b      	uxth	r3, r3
}
 8000ed0:	4618      	mov	r0, r3
 8000ed2:	3714      	adds	r7, #20
 8000ed4:	46bd      	mov	sp, r7
 8000ed6:	f85d 7b04 	ldr.w	r7, [sp], #4
 8000eda:	4770      	bx	lr

08000edc <SPI_NSS_High>:
//	}
//
//}

void SPI_NSS_High(SPI_Config *config)
{
 8000edc:	b580      	push	{r7, lr}
 8000ede:	b082      	sub	sp, #8
 8000ee0:	af00      	add	r7, sp, #0
 8000ee2:	6078      	str	r0, [r7, #4]
	GPIO_Pin_High(config->NSS_Port, config->NSS_Pin);
 8000ee4:	687b      	ldr	r3, [r7, #4]
 8000ee6:	689a      	ldr	r2, [r3, #8]
 8000ee8:	687b      	ldr	r3, [r7, #4]
 8000eea:	7b1b      	ldrb	r3, [r3, #12]
 8000eec:	4619      	mov	r1, r3
 8000eee:	4610      	mov	r0, r2
 8000ef0:	f7ff f97a 	bl	80001e8 <GPIO_Pin_High>
}
 8000ef4:	bf00      	nop
 8000ef6:	3708      	adds	r7, #8
 8000ef8:	46bd      	mov	sp, r7
 8000efa:	bd80      	pop	{r7, pc}

08000efc <SPI_NSS_Low>:

void SPI_NSS_Low(SPI_Config *config)
{
 8000efc:	b580      	push	{r7, lr}
 8000efe:	b082      	sub	sp, #8
 8000f00:	af00      	add	r7, sp, #0
 8000f02:	6078      	str	r0, [r7, #4]
	GPIO_Pin_Low(config->NSS_Port, config->NSS_Pin);
 8000f04:	687b      	ldr	r3, [r7, #4]
 8000f06:	689a      	ldr	r2, [r3, #8]
 8000f08:	687b      	ldr	r3, [r7, #4]
 8000f0a:	7b1b      	ldrb	r3, [r3, #12]
 8000f0c:	4619      	mov	r1, r3
 8000f0e:	4610      	mov	r0, r2
 8000f10:	f7ff f97c 	bl	800020c <GPIO_Pin_Low>
}
 8000f14:	bf00      	nop
 8000f16:	3708      	adds	r7, #8
 8000f18:	46bd      	mov	sp, r7
 8000f1a:	bd80      	pop	{r7, pc}

08000f1c <__NVIC_SetPriority>:
  \param [in]      IRQn  Interrupt number.
  \param [in]  priority  Priority to set.
  \note    The priority cannot be set for every processor exception.
 */
__STATIC_INLINE void __NVIC_SetPriority(IRQn_Type IRQn, uint32_t priority)
{
 8000f1c:	b480      	push	{r7}
 8000f1e:	b083      	sub	sp, #12
 8000f20:	af00      	add	r7, sp, #0
 8000f22:	4603      	mov	r3, r0
 8000f24:	6039      	str	r1, [r7, #0]
 8000f26:	71fb      	strb	r3, [r7, #7]
  if ((int32_t)(IRQn) >= 0)
 8000f28:	f997 3007 	ldrsb.w	r3, [r7, #7]
 8000f2c:	2b00      	cmp	r3, #0
 8000f2e:	db0a      	blt.n	8000f46 <__NVIC_SetPriority+0x2a>
  {
    NVIC->IP[((uint32_t)IRQn)]               = (uint8_t)((priority << (8U - __NVIC_PRIO_BITS)) & (uint32_t)0xFFUL);
 8000f30:	683b      	ldr	r3, [r7, #0]
 8000f32:	b2da      	uxtb	r2, r3
 8000f34:	490c      	ldr	r1, [pc, #48]	; (8000f68 <__NVIC_SetPriority+0x4c>)
 8000f36:	f997 3007 	ldrsb.w	r3, [r7, #7]
 8000f3a:	0112      	lsls	r2, r2, #4
 8000f3c:	b2d2      	uxtb	r2, r2
 8000f3e:	440b      	add	r3, r1
 8000f40:	f883 2300 	strb.w	r2, [r3, #768]	; 0x300
  }
  else
  {
    SCB->SHP[(((uint32_t)IRQn) & 0xFUL)-4UL] = (uint8_t)((priority << (8U - __NVIC_PRIO_BITS)) & (uint32_t)0xFFUL);
  }
}
 8000f44:	e00a      	b.n	8000f5c <__NVIC_SetPriority+0x40>
    SCB->SHP[(((uint32_t)IRQn) & 0xFUL)-4UL] = (uint8_t)((priority << (8U - __NVIC_PRIO_BITS)) & (uint32_t)0xFFUL);
 8000f46:	683b      	ldr	r3, [r7, #0]
 8000f48:	b2da      	uxtb	r2, r3
 8000f4a:	4908      	ldr	r1, [pc, #32]	; (8000f6c <__NVIC_SetPriority+0x50>)
 8000f4c:	79fb      	ldrb	r3, [r7, #7]
 8000f4e:	f003 030f 	and.w	r3, r3, #15
 8000f52:	3b04      	subs	r3, #4
 8000f54:	0112      	lsls	r2, r2, #4
 8000f56:	b2d2      	uxtb	r2, r2
 8000f58:	440b      	add	r3, r1
 8000f5a:	761a      	strb	r2, [r3, #24]
}
 8000f5c:	bf00      	nop
 8000f5e:	370c      	adds	r7, #12
 8000f60:	46bd      	mov	sp, r7
 8000f62:	f85d 7b04 	ldr.w	r7, [sp], #4
 8000f66:	4770      	bx	lr
 8000f68:	e000e100 	.word	0xe000e100
 8000f6c:	e000ed00 	.word	0xe000ed00

08000f70 <SysTick_Config>:
  \note    When the variable <b>__Vendor_SysTickConfig</b> is set to 1, then the
           function <b>SysTick_Config</b> is not included. In this case, the file <b><i>device</i>.h</b>
           must contain a vendor-specific implementation of this function.
 */
__STATIC_INLINE uint32_t SysTick_Config(uint32_t ticks)
{
 8000f70:	b580      	push	{r7, lr}
 8000f72:	b082      	sub	sp, #8
 8000f74:	af00      	add	r7, sp, #0
 8000f76:	6078      	str	r0, [r7, #4]
  if ((ticks - 1UL) > SysTick_LOAD_RELOAD_Msk)
 8000f78:	687b      	ldr	r3, [r7, #4]
 8000f7a:	3b01      	subs	r3, #1
 8000f7c:	f1b3 7f80 	cmp.w	r3, #16777216	; 0x1000000
 8000f80:	d301      	bcc.n	8000f86 <SysTick_Config+0x16>
  {
    return (1UL);                                                   /* Reload value impossible */
 8000f82:	2301      	movs	r3, #1
 8000f84:	e00f      	b.n	8000fa6 <SysTick_Config+0x36>
  }

  SysTick->LOAD  = (uint32_t)(ticks - 1UL);                         /* set reload register */
 8000f86:	4a0a      	ldr	r2, [pc, #40]	; (8000fb0 <SysTick_Config+0x40>)
 8000f88:	687b      	ldr	r3, [r7, #4]
 8000f8a:	3b01      	subs	r3, #1
 8000f8c:	6053      	str	r3, [r2, #4]
  NVIC_SetPriority (SysTick_IRQn, (1UL << __NVIC_PRIO_BITS) - 1UL); /* set Priority for Systick Interrupt */
 8000f8e:	210f      	movs	r1, #15
 8000f90:	f04f 30ff 	mov.w	r0, #4294967295
 8000f94:	f7ff ffc2 	bl	8000f1c <__NVIC_SetPriority>
  SysTick->VAL   = 0UL;                                             /* Load the SysTick Counter Value */
 8000f98:	4b05      	ldr	r3, [pc, #20]	; (8000fb0 <SysTick_Config+0x40>)
 8000f9a:	2200      	movs	r2, #0
 8000f9c:	609a      	str	r2, [r3, #8]
  SysTick->CTRL  = SysTick_CTRL_CLKSOURCE_Msk |
 8000f9e:	4b04      	ldr	r3, [pc, #16]	; (8000fb0 <SysTick_Config+0x40>)
 8000fa0:	2207      	movs	r2, #7
 8000fa2:	601a      	str	r2, [r3, #0]
                   SysTick_CTRL_TICKINT_Msk   |
                   SysTick_CTRL_ENABLE_Msk;                         /* Enable SysTick IRQ and SysTick Timer */
  return (0UL);                                                     /* Function successful */
 8000fa4:	2300      	movs	r3, #0
}
 8000fa6:	4618      	mov	r0, r3
 8000fa8:	3708      	adds	r7, #8
 8000faa:	46bd      	mov	sp, r7
 8000fac:	bd80      	pop	{r7, pc}
 8000fae:	bf00      	nop
 8000fb0:	e000e010 	.word	0xe000e010

08000fb4 <MCU_Clock_Setup>:
{
	return (SystemCoreClock >> APBPrescTable[(RCC->CFGR & RCC_CFGR_PPRE2)>> RCC_CFGR_PPRE2_Pos]);
}

__STATIC_INLINE void MCU_Clock_Setup(void)
{
 8000fb4:	b580      	push	{r7, lr}
 8000fb6:	b082      	sub	sp, #8
 8000fb8:	af00      	add	r7, sp, #0
	uint8_t pll_m = 4;
 8000fba:	2304      	movs	r3, #4
 8000fbc:	71fb      	strb	r3, [r7, #7]
	uint8_t pll_n = 168; //192
 8000fbe:	23a8      	movs	r3, #168	; 0xa8
 8000fc0:	71bb      	strb	r3, [r7, #6]
	uint8_t pll_p = 0;
 8000fc2:	2300      	movs	r3, #0
 8000fc4:	717b      	strb	r3, [r7, #5]
	uint8_t pll_q = 7;
 8000fc6:	2307      	movs	r3, #7
 8000fc8:	713b      	strb	r3, [r7, #4]

	RCC->PLLCFGR = 0x00000000;
 8000fca:	4b3d      	ldr	r3, [pc, #244]	; (80010c0 <MCU_Clock_Setup+0x10c>)
 8000fcc:	2200      	movs	r2, #0
 8000fce:	605a      	str	r2, [r3, #4]
	RCC -> CR |= RCC_CR_HSEON;
 8000fd0:	4b3b      	ldr	r3, [pc, #236]	; (80010c0 <MCU_Clock_Setup+0x10c>)
 8000fd2:	681b      	ldr	r3, [r3, #0]
 8000fd4:	4a3a      	ldr	r2, [pc, #232]	; (80010c0 <MCU_Clock_Setup+0x10c>)
 8000fd6:	f443 3380 	orr.w	r3, r3, #65536	; 0x10000
 8000fda:	6013      	str	r3, [r2, #0]
	while(!(RCC -> CR & RCC_CR_HSERDY)){}
 8000fdc:	bf00      	nop
 8000fde:	4b38      	ldr	r3, [pc, #224]	; (80010c0 <MCU_Clock_Setup+0x10c>)
 8000fe0:	681b      	ldr	r3, [r3, #0]
 8000fe2:	f403 3300 	and.w	r3, r3, #131072	; 0x20000
 8000fe6:	2b00      	cmp	r3, #0
 8000fe8:	d0f9      	beq.n	8000fde <MCU_Clock_Setup+0x2a>
	RCC -> APB1ENR |= RCC_APB1ENR_PWREN;
 8000fea:	4b35      	ldr	r3, [pc, #212]	; (80010c0 <MCU_Clock_Setup+0x10c>)
 8000fec:	6c1b      	ldr	r3, [r3, #64]	; 0x40
 8000fee:	4a34      	ldr	r2, [pc, #208]	; (80010c0 <MCU_Clock_Setup+0x10c>)
 8000ff0:	f043 5380 	orr.w	r3, r3, #268435456	; 0x10000000
 8000ff4:	6413      	str	r3, [r2, #64]	; 0x40
	PWR ->CR |= PWR_CR_VOS;
 8000ff6:	4b33      	ldr	r3, [pc, #204]	; (80010c4 <MCU_Clock_Setup+0x110>)
 8000ff8:	681b      	ldr	r3, [r3, #0]
 8000ffa:	4a32      	ldr	r2, [pc, #200]	; (80010c4 <MCU_Clock_Setup+0x110>)
 8000ffc:	f443 4380 	orr.w	r3, r3, #16384	; 0x4000
 8001000:	6013      	str	r3, [r2, #0]
	FLASH -> ACR |= FLASH_ACR_ICEN | FLASH_ACR_PRFTEN | FLASH_ACR_DCEN | FLASH_ACR_LATENCY_5WS;
 8001002:	4b31      	ldr	r3, [pc, #196]	; (80010c8 <MCU_Clock_Setup+0x114>)
 8001004:	681b      	ldr	r3, [r3, #0]
 8001006:	4a30      	ldr	r2, [pc, #192]	; (80010c8 <MCU_Clock_Setup+0x114>)
 8001008:	f443 63e0 	orr.w	r3, r3, #1792	; 0x700
 800100c:	f043 0305 	orr.w	r3, r3, #5
 8001010:	6013      	str	r3, [r2, #0]
	RCC->PLLCFGR |= (pll_q << 24) | (pll_p << 16) | (pll_n << 6) | (pll_m << 0);
 8001012:	4b2b      	ldr	r3, [pc, #172]	; (80010c0 <MCU_Clock_Setup+0x10c>)
 8001014:	685b      	ldr	r3, [r3, #4]
 8001016:	793a      	ldrb	r2, [r7, #4]
 8001018:	0611      	lsls	r1, r2, #24
 800101a:	797a      	ldrb	r2, [r7, #5]
 800101c:	0412      	lsls	r2, r2, #16
 800101e:	4311      	orrs	r1, r2
 8001020:	79ba      	ldrb	r2, [r7, #6]
 8001022:	0192      	lsls	r2, r2, #6
 8001024:	4311      	orrs	r1, r2
 8001026:	79fa      	ldrb	r2, [r7, #7]
 8001028:	430a      	orrs	r2, r1
 800102a:	4611      	mov	r1, r2
 800102c:	4a24      	ldr	r2, [pc, #144]	; (80010c0 <MCU_Clock_Setup+0x10c>)
 800102e:	430b      	orrs	r3, r1
 8001030:	6053      	str	r3, [r2, #4]
	RCC ->PLLCFGR |= 1 << 22;
 8001032:	4b23      	ldr	r3, [pc, #140]	; (80010c0 <MCU_Clock_Setup+0x10c>)
 8001034:	685b      	ldr	r3, [r3, #4]
 8001036:	4a22      	ldr	r2, [pc, #136]	; (80010c0 <MCU_Clock_Setup+0x10c>)
 8001038:	f443 0380 	orr.w	r3, r3, #4194304	; 0x400000
 800103c:	6053      	str	r3, [r2, #4]
	RCC -> CFGR |= RCC_CFGR_HPRE_DIV1;
 800103e:	4b20      	ldr	r3, [pc, #128]	; (80010c0 <MCU_Clock_Setup+0x10c>)
 8001040:	4a1f      	ldr	r2, [pc, #124]	; (80010c0 <MCU_Clock_Setup+0x10c>)
 8001042:	689b      	ldr	r3, [r3, #8]
 8001044:	6093      	str	r3, [r2, #8]
	RCC -> CFGR |= RCC_CFGR_PPRE1_DIV4;
 8001046:	4b1e      	ldr	r3, [pc, #120]	; (80010c0 <MCU_Clock_Setup+0x10c>)
 8001048:	689b      	ldr	r3, [r3, #8]
 800104a:	4a1d      	ldr	r2, [pc, #116]	; (80010c0 <MCU_Clock_Setup+0x10c>)
 800104c:	f443 53a0 	orr.w	r3, r3, #5120	; 0x1400
 8001050:	6093      	str	r3, [r2, #8]
	RCC -> CFGR |= RCC_CFGR_PPRE2_DIV2;
 8001052:	4b1b      	ldr	r3, [pc, #108]	; (80010c0 <MCU_Clock_Setup+0x10c>)
 8001054:	689b      	ldr	r3, [r3, #8]
 8001056:	4a1a      	ldr	r2, [pc, #104]	; (80010c0 <MCU_Clock_Setup+0x10c>)
 8001058:	f443 4300 	orr.w	r3, r3, #32768	; 0x8000
 800105c:	6093      	str	r3, [r2, #8]
	RCC -> CR |= RCC_CR_PLLON;
 800105e:	4b18      	ldr	r3, [pc, #96]	; (80010c0 <MCU_Clock_Setup+0x10c>)
 8001060:	681b      	ldr	r3, [r3, #0]
 8001062:	4a17      	ldr	r2, [pc, #92]	; (80010c0 <MCU_Clock_Setup+0x10c>)
 8001064:	f043 7380 	orr.w	r3, r3, #16777216	; 0x1000000
 8001068:	6013      	str	r3, [r2, #0]
	while(!(RCC->CR & RCC_CR_PLLRDY)){}
 800106a:	bf00      	nop
 800106c:	4b14      	ldr	r3, [pc, #80]	; (80010c0 <MCU_Clock_Setup+0x10c>)
 800106e:	681b      	ldr	r3, [r3, #0]
 8001070:	f003 7300 	and.w	r3, r3, #33554432	; 0x2000000
 8001074:	2b00      	cmp	r3, #0
 8001076:	d0f9      	beq.n	800106c <MCU_Clock_Setup+0xb8>
	RCC -> CFGR |= RCC_CFGR_SW_PLL;
 8001078:	4b11      	ldr	r3, [pc, #68]	; (80010c0 <MCU_Clock_Setup+0x10c>)
 800107a:	689b      	ldr	r3, [r3, #8]
 800107c:	4a10      	ldr	r2, [pc, #64]	; (80010c0 <MCU_Clock_Setup+0x10c>)
 800107e:	f043 0302 	orr.w	r3, r3, #2
 8001082:	6093      	str	r3, [r2, #8]
	while((RCC -> CFGR & RCC_CFGR_SWS_PLL) != RCC_CFGR_SWS_PLL);
 8001084:	bf00      	nop
 8001086:	4b0e      	ldr	r3, [pc, #56]	; (80010c0 <MCU_Clock_Setup+0x10c>)
 8001088:	689b      	ldr	r3, [r3, #8]
 800108a:	f003 0308 	and.w	r3, r3, #8
 800108e:	2b08      	cmp	r3, #8
 8001090:	d1f9      	bne.n	8001086 <MCU_Clock_Setup+0xd2>
	SystemCoreClockUpdate();
 8001092:	f000 f907 	bl	80012a4 <SystemCoreClockUpdate>
	SysTick_Config(SystemCoreClock/168);
 8001096:	4b0d      	ldr	r3, [pc, #52]	; (80010cc <MCU_Clock_Setup+0x118>)
 8001098:	681b      	ldr	r3, [r3, #0]
 800109a:	08db      	lsrs	r3, r3, #3
 800109c:	4a0c      	ldr	r2, [pc, #48]	; (80010d0 <MCU_Clock_Setup+0x11c>)
 800109e:	fba2 2303 	umull	r2, r3, r2, r3
 80010a2:	085b      	lsrs	r3, r3, #1
 80010a4:	4618      	mov	r0, r3
 80010a6:	f7ff ff63 	bl	8000f70 <SysTick_Config>
	RCC -> APB2ENR |= RCC_APB2ENR_SYSCFGEN;
 80010aa:	4b05      	ldr	r3, [pc, #20]	; (80010c0 <MCU_Clock_Setup+0x10c>)
 80010ac:	6c5b      	ldr	r3, [r3, #68]	; 0x44
 80010ae:	4a04      	ldr	r2, [pc, #16]	; (80010c0 <MCU_Clock_Setup+0x10c>)
 80010b0:	f443 4380 	orr.w	r3, r3, #16384	; 0x4000
 80010b4:	6453      	str	r3, [r2, #68]	; 0x44
}
 80010b6:	bf00      	nop
 80010b8:	3708      	adds	r7, #8
 80010ba:	46bd      	mov	sp, r7
 80010bc:	bd80      	pop	{r7, pc}
 80010be:	bf00      	nop
 80010c0:	40023800 	.word	0x40023800
 80010c4:	40007000 	.word	0x40007000
 80010c8:	40023c00 	.word	0x40023c00
 80010cc:	20000000 	.word	0x20000000
 80010d0:	18618619 	.word	0x18618619

080010d4 <Delay_Config>:
}



__STATIC_INLINE uint32_t Delay_Config(void)
{
 80010d4:	b480      	push	{r7}
 80010d6:	af00      	add	r7, sp, #0

	SysTick->CTRL = 0;
 80010d8:	4b09      	ldr	r3, [pc, #36]	; (8001100 <Delay_Config+0x2c>)
 80010da:	2200      	movs	r2, #0
 80010dc:	601a      	str	r2, [r3, #0]
	SysTick->LOAD = 0x00FFFFFF;
 80010de:	4b08      	ldr	r3, [pc, #32]	; (8001100 <Delay_Config+0x2c>)
 80010e0:	f06f 427f 	mvn.w	r2, #4278190080	; 0xff000000
 80010e4:	605a      	str	r2, [r3, #4]
	SysTick->VAL = 0;
 80010e6:	4b06      	ldr	r3, [pc, #24]	; (8001100 <Delay_Config+0x2c>)
 80010e8:	2200      	movs	r2, #0
 80010ea:	609a      	str	r2, [r3, #8]
	SysTick->CTRL = 5;
 80010ec:	4b04      	ldr	r3, [pc, #16]	; (8001100 <Delay_Config+0x2c>)
 80010ee:	2205      	movs	r2, #5
 80010f0:	601a      	str	r2, [r3, #0]
	return (0UL);                                                     /* Function successful */
 80010f2:	2300      	movs	r3, #0
}
 80010f4:	4618      	mov	r0, r3
 80010f6:	46bd      	mov	sp, r7
 80010f8:	f85d 7b04 	ldr.w	r7, [sp], #4
 80010fc:	4770      	bx	lr
 80010fe:	bf00      	nop
 8001100:	e000e010 	.word	0xe000e010

08001104 <Delay_ms>:
	while((SysTick->CTRL & 0x00010000) == 0);
	return (0UL);                                                     /* Function successful */
}

__STATIC_INLINE uint32_t Delay_ms(float ms)
{
 8001104:	b480      	push	{r7}
 8001106:	b085      	sub	sp, #20
 8001108:	af00      	add	r7, sp, #0
 800110a:	ed87 0a01 	vstr	s0, [r7, #4]
	unsigned long x =0x29040 * (ms);
 800110e:	edd7 7a01 	vldr	s15, [r7, #4]
 8001112:	ed9f 7a11 	vldr	s14, [pc, #68]	; 8001158 <Delay_ms+0x54>
 8001116:	ee67 7a87 	vmul.f32	s15, s15, s14
 800111a:	eefc 7ae7 	vcvt.u32.f32	s15, s15
 800111e:	ee17 3a90 	vmov	r3, s15
 8001122:	60fb      	str	r3, [r7, #12]
	SysTick->LOAD =  x ;
 8001124:	4a0d      	ldr	r2, [pc, #52]	; (800115c <Delay_ms+0x58>)
 8001126:	68fb      	ldr	r3, [r7, #12]
 8001128:	6053      	str	r3, [r2, #4]
	SysTick->VAL = 0;
 800112a:	4b0c      	ldr	r3, [pc, #48]	; (800115c <Delay_ms+0x58>)
 800112c:	2200      	movs	r2, #0
 800112e:	609a      	str	r2, [r3, #8]
	SysTick->CTRL |= 1;
 8001130:	4b0a      	ldr	r3, [pc, #40]	; (800115c <Delay_ms+0x58>)
 8001132:	681b      	ldr	r3, [r3, #0]
 8001134:	4a09      	ldr	r2, [pc, #36]	; (800115c <Delay_ms+0x58>)
 8001136:	f043 0301 	orr.w	r3, r3, #1
 800113a:	6013      	str	r3, [r2, #0]
	while((SysTick->CTRL & 0x00010000) == 0);
 800113c:	bf00      	nop
 800113e:	4b07      	ldr	r3, [pc, #28]	; (800115c <Delay_ms+0x58>)
 8001140:	681b      	ldr	r3, [r3, #0]
 8001142:	f403 3380 	and.w	r3, r3, #65536	; 0x10000
 8001146:	2b00      	cmp	r3, #0
 8001148:	d0f9      	beq.n	800113e <Delay_ms+0x3a>
	return (0UL);                                                     /* Function successful */
 800114a:	2300      	movs	r3, #0
}
 800114c:	4618      	mov	r0, r3
 800114e:	3714      	adds	r7, #20
 8001150:	46bd      	mov	sp, r7
 8001152:	f85d 7b04 	ldr.w	r7, [sp], #4
 8001156:	4770      	bx	lr
 8001158:	48241000 	.word	0x48241000
 800115c:	e000e010 	.word	0xe000e010

08001160 <main>:
W5500_Config xW5500;
W5500_Socket_Config xW5500_Socket0;


int main(void)
{
 8001160:	b580      	push	{r7, lr}
 8001162:	b08c      	sub	sp, #48	; 0x30
 8001164:	af00      	add	r7, sp, #0
	MCU_Clock_Setup();
 8001166:	f7ff ff25 	bl	8000fb4 <MCU_Clock_Setup>
	Delay_Config();
 800116a:	f7ff ffb3 	bl	80010d4 <Delay_Config>



	SPI_Config_Reset(&xW5500.SPI);
 800116e:	483b      	ldr	r0, [pc, #236]	; (800125c <main+0xfc>)
 8001170:	f7ff f95a 	bl	8000428 <SPI_Config_Reset>
	xW5500.SPI.Port = SPI1;
 8001174:	4b39      	ldr	r3, [pc, #228]	; (800125c <main+0xfc>)
 8001176:	4a3a      	ldr	r2, [pc, #232]	; (8001260 <main+0x100>)
 8001178:	601a      	str	r2, [r3, #0]
	xW5500.SPI.miso_pin = SPI1_MISO.PA6;
 800117a:	2310      	movs	r3, #16
 800117c:	b2da      	uxtb	r2, r3
 800117e:	4b37      	ldr	r3, [pc, #220]	; (800125c <main+0xfc>)
 8001180:	719a      	strb	r2, [r3, #6]
	xW5500.SPI.mosi_pin = SPI1_MOSI.PA7;
 8001182:	2311      	movs	r3, #17
 8001184:	b2da      	uxtb	r2, r3
 8001186:	4b35      	ldr	r3, [pc, #212]	; (800125c <main+0xfc>)
 8001188:	715a      	strb	r2, [r3, #5]
	xW5500.SPI.clock_pin = SPI1_CLK.PA5;
 800118a:	230f      	movs	r3, #15
 800118c:	b2da      	uxtb	r2, r3
 800118e:	4b33      	ldr	r3, [pc, #204]	; (800125c <main+0xfc>)
 8001190:	711a      	strb	r2, [r3, #4]
	xW5500.SPI.prescaler = SPI_Prescaler.CLK_div_16;
 8001192:	2203      	movs	r2, #3
 8001194:	4b31      	ldr	r3, [pc, #196]	; (800125c <main+0xfc>)
 8001196:	82da      	strh	r2, [r3, #22]



	uint8_t Subnet_Mask_Address[] = {255,255,0,0};
 8001198:	f64f 73ff 	movw	r3, #65535	; 0xffff
 800119c:	62fb      	str	r3, [r7, #44]	; 0x2c
	uint8_t Gateway_address[] = {0xFF,0xFF,0xFF,0xFF};
 800119e:	f04f 33ff 	mov.w	r3, #4294967295
 80011a2:	62bb      	str	r3, [r7, #40]	; 0x28
	uint8_t Source_Hardware_Address[] = {0x11,0x22,0x33,0x44,0x55,0x66};
 80011a4:	4a2f      	ldr	r2, [pc, #188]	; (8001264 <main+0x104>)
 80011a6:	f107 0320 	add.w	r3, r7, #32
 80011aa:	e892 0003 	ldmia.w	r2, {r0, r1}
 80011ae:	6018      	str	r0, [r3, #0]
 80011b0:	3304      	adds	r3, #4
 80011b2:	8019      	strh	r1, [r3, #0]
	uint8_t Source_IP_Address[] = {169,254,26,102}; //169.254.26.103
 80011b4:	4b2c      	ldr	r3, [pc, #176]	; (8001268 <main+0x108>)
 80011b6:	61fb      	str	r3, [r7, #28]

	xW5500.Gateway_Address = Gateway_address;
 80011b8:	4a28      	ldr	r2, [pc, #160]	; (800125c <main+0xfc>)
 80011ba:	f107 0328 	add.w	r3, r7, #40	; 0x28
 80011be:	6293      	str	r3, [r2, #40]	; 0x28
	xW5500.Source_Hardware_Address = Source_Hardware_Address;
 80011c0:	4a26      	ldr	r2, [pc, #152]	; (800125c <main+0xfc>)
 80011c2:	f107 0320 	add.w	r3, r7, #32
 80011c6:	6313      	str	r3, [r2, #48]	; 0x30
	xW5500.Source_IP_Address = Source_IP_Address;
 80011c8:	4a24      	ldr	r2, [pc, #144]	; (800125c <main+0xfc>)
 80011ca:	f107 031c 	add.w	r3, r7, #28
 80011ce:	6353      	str	r3, [r2, #52]	; 0x34
	xW5500.Subnet_Mask_Address = Subnet_Mask_Address;
 80011d0:	4a22      	ldr	r2, [pc, #136]	; (800125c <main+0xfc>)
 80011d2:	f107 032c 	add.w	r3, r7, #44	; 0x2c
 80011d6:	62d3      	str	r3, [r2, #44]	; 0x2c

	W5500_Init(&xW5500);
 80011d8:	4820      	ldr	r0, [pc, #128]	; (800125c <main+0xfc>)
 80011da:	f000 f93b 	bl	8001454 <W5500_Init>

	xW5500_Socket0.Hardware_Socket_Number = W5500_Hardware_Socket.Socket_1;
 80011de:	2201      	movs	r2, #1
 80011e0:	4b22      	ldr	r3, [pc, #136]	; (800126c <main+0x10c>)
 80011e2:	701a      	strb	r2, [r3, #0]
	xW5500_Socket0.Mode = W5500_Socket_Mode.UDP;
 80011e4:	2202      	movs	r2, #2
 80011e6:	4b21      	ldr	r3, [pc, #132]	; (800126c <main+0x10c>)
 80011e8:	709a      	strb	r2, [r3, #2]
	xW5500_Socket0.client_server = W5500_Socket_Type.Client;
 80011ea:	2201      	movs	r2, #1
 80011ec:	4b1f      	ldr	r3, [pc, #124]	; (800126c <main+0x10c>)
 80011ee:	705a      	strb	r2, [r3, #1]
	xW5500_Socket0.Source_Port = 48569;
 80011f0:	4b1e      	ldr	r3, [pc, #120]	; (800126c <main+0x10c>)
 80011f2:	f64b 52b9 	movw	r2, #48569	; 0xbdb9
 80011f6:	809a      	strh	r2, [r3, #4]
	xW5500_Socket0.Destination_Port = 48569; //48569
 80011f8:	4b1c      	ldr	r3, [pc, #112]	; (800126c <main+0x10c>)
 80011fa:	f64b 52b9 	movw	r2, #48569	; 0xbdb9
 80011fe:	821a      	strh	r2, [r3, #16]

	uint8_t Destination_Hardware_Address[] = { 0x00,0xe0,0x4c,0x68,0x9e,0x2c};
 8001200:	4a1b      	ldr	r2, [pc, #108]	; (8001270 <main+0x110>)
 8001202:	f107 0314 	add.w	r3, r7, #20
 8001206:	e892 0003 	ldmia.w	r2, {r0, r1}
 800120a:	6018      	str	r0, [r3, #0]
 800120c:	3304      	adds	r3, #4
 800120e:	8019      	strh	r1, [r3, #0]
	uint8_t Destination_IP_Address[] = {169,254,26,103}; //169.254.26.103
 8001210:	4b18      	ldr	r3, [pc, #96]	; (8001274 <main+0x114>)
 8001212:	613b      	str	r3, [r7, #16]
	xW5500_Socket0.Destination_Hardware_Address = Destination_Hardware_Address;
 8001214:	4a15      	ldr	r2, [pc, #84]	; (800126c <main+0x10c>)
 8001216:	f107 0314 	add.w	r3, r7, #20
 800121a:	6093      	str	r3, [r2, #8]
	xW5500_Socket0.Destination_IP_Address = Destination_IP_Address;
 800121c:	4a13      	ldr	r2, [pc, #76]	; (800126c <main+0x10c>)
 800121e:	f107 0310 	add.w	r3, r7, #16
 8001222:	60d3      	str	r3, [r2, #12]



	uint8_t data[] = {'K','u','n','a','l',' ', 'S', 'a', 'l', 'v', 'i'};
 8001224:	4a14      	ldr	r2, [pc, #80]	; (8001278 <main+0x118>)
 8001226:	1d3b      	adds	r3, r7, #4
 8001228:	ca07      	ldmia	r2, {r0, r1, r2}
 800122a:	c303      	stmia	r3!, {r0, r1}
 800122c:	801a      	strh	r2, [r3, #0]
 800122e:	3302      	adds	r3, #2
 8001230:	0c12      	lsrs	r2, r2, #16
 8001232:	701a      	strb	r2, [r3, #0]
	xW5500_Socket0.data = data;
 8001234:	4a0d      	ldr	r2, [pc, #52]	; (800126c <main+0x10c>)
 8001236:	1d3b      	adds	r3, r7, #4
 8001238:	6153      	str	r3, [r2, #20]
	xW5500_Socket0.data_len = 11;
 800123a:	4b0c      	ldr	r3, [pc, #48]	; (800126c <main+0x10c>)
 800123c:	220b      	movs	r2, #11
 800123e:	831a      	strh	r2, [r3, #24]

	W5500_Socket_UDP_Setup(&xW5500, &xW5500_Socket0);
 8001240:	490a      	ldr	r1, [pc, #40]	; (800126c <main+0x10c>)
 8001242:	4806      	ldr	r0, [pc, #24]	; (800125c <main+0xfc>)
 8001244:	f000 f984 	bl	8001550 <W5500_Socket_UDP_Setup>


	for(;;)
	{

		W5500_Socket_UDP_Send_Data(&xW5500, &xW5500_Socket0);
 8001248:	4908      	ldr	r1, [pc, #32]	; (800126c <main+0x10c>)
 800124a:	4804      	ldr	r0, [pc, #16]	; (800125c <main+0xfc>)
 800124c:	f000 f9e4 	bl	8001618 <W5500_Socket_UDP_Send_Data>
		Delay_ms(100);
 8001250:	ed9f 0a0a 	vldr	s0, [pc, #40]	; 800127c <main+0x11c>
 8001254:	f7ff ff56 	bl	8001104 <Delay_ms>
		W5500_Socket_UDP_Send_Data(&xW5500, &xW5500_Socket0);
 8001258:	e7f6      	b.n	8001248 <main+0xe8>
 800125a:	bf00      	nop
 800125c:	20000024 	.word	0x20000024
 8001260:	40013000 	.word	0x40013000
 8001264:	08001b24 	.word	0x08001b24
 8001268:	661afea9 	.word	0x661afea9
 800126c:	2000005c 	.word	0x2000005c
 8001270:	08001b2c 	.word	0x08001b2c
 8001274:	671afea9 	.word	0x671afea9
 8001278:	08001b34 	.word	0x08001b34
 800127c:	42c80000 	.word	0x42c80000

08001280 <SystemInit>:
  *         configuration.
  * @param  None
  * @retval None
  */
void SystemInit(void)
{
 8001280:	b480      	push	{r7}
 8001282:	af00      	add	r7, sp, #0
  /* FPU settings ------------------------------------------------------------*/
  #if (__FPU_PRESENT == 1) && (__FPU_USED == 1)
    SCB->CPACR |= ((3UL << 10*2)|(3UL << 11*2));  /* set CP10 and CP11 Full Access */
 8001284:	4b06      	ldr	r3, [pc, #24]	; (80012a0 <SystemInit+0x20>)
 8001286:	f8d3 3088 	ldr.w	r3, [r3, #136]	; 0x88
 800128a:	4a05      	ldr	r2, [pc, #20]	; (80012a0 <SystemInit+0x20>)
 800128c:	f443 0370 	orr.w	r3, r3, #15728640	; 0xf00000
 8001290:	f8c2 3088 	str.w	r3, [r2, #136]	; 0x88

  /* Configure the Vector Table location -------------------------------------*/
#if defined(USER_VECT_TAB_ADDRESS)
  SCB->VTOR = VECT_TAB_BASE_ADDRESS | VECT_TAB_OFFSET; /* Vector Table Relocation in Internal SRAM */
#endif /* USER_VECT_TAB_ADDRESS */
}
 8001294:	bf00      	nop
 8001296:	46bd      	mov	sp, r7
 8001298:	f85d 7b04 	ldr.w	r7, [sp], #4
 800129c:	4770      	bx	lr
 800129e:	bf00      	nop
 80012a0:	e000ed00 	.word	0xe000ed00

080012a4 <SystemCoreClockUpdate>:
  *     
  * @param  None
  * @retval None
  */
void SystemCoreClockUpdate(void)
{
 80012a4:	b480      	push	{r7}
 80012a6:	b087      	sub	sp, #28
 80012a8:	af00      	add	r7, sp, #0
  uint32_t tmp = 0, pllvco = 0, pllp = 2, pllsource = 0, pllm = 2;
 80012aa:	2300      	movs	r3, #0
 80012ac:	613b      	str	r3, [r7, #16]
 80012ae:	2300      	movs	r3, #0
 80012b0:	617b      	str	r3, [r7, #20]
 80012b2:	2302      	movs	r3, #2
 80012b4:	60fb      	str	r3, [r7, #12]
 80012b6:	2300      	movs	r3, #0
 80012b8:	60bb      	str	r3, [r7, #8]
 80012ba:	2302      	movs	r3, #2
 80012bc:	607b      	str	r3, [r7, #4]
  
  /* Get SYSCLK source -------------------------------------------------------*/
  tmp = RCC->CFGR & RCC_CFGR_SWS;
 80012be:	4b34      	ldr	r3, [pc, #208]	; (8001390 <SystemCoreClockUpdate+0xec>)
 80012c0:	689b      	ldr	r3, [r3, #8]
 80012c2:	f003 030c 	and.w	r3, r3, #12
 80012c6:	613b      	str	r3, [r7, #16]

  switch (tmp)
 80012c8:	693b      	ldr	r3, [r7, #16]
 80012ca:	2b08      	cmp	r3, #8
 80012cc:	d011      	beq.n	80012f2 <SystemCoreClockUpdate+0x4e>
 80012ce:	693b      	ldr	r3, [r7, #16]
 80012d0:	2b08      	cmp	r3, #8
 80012d2:	d844      	bhi.n	800135e <SystemCoreClockUpdate+0xba>
 80012d4:	693b      	ldr	r3, [r7, #16]
 80012d6:	2b00      	cmp	r3, #0
 80012d8:	d003      	beq.n	80012e2 <SystemCoreClockUpdate+0x3e>
 80012da:	693b      	ldr	r3, [r7, #16]
 80012dc:	2b04      	cmp	r3, #4
 80012de:	d004      	beq.n	80012ea <SystemCoreClockUpdate+0x46>
 80012e0:	e03d      	b.n	800135e <SystemCoreClockUpdate+0xba>
  {
    case 0x00:  /* HSI used as system clock source */
      SystemCoreClock = HSI_VALUE;
 80012e2:	4b2c      	ldr	r3, [pc, #176]	; (8001394 <SystemCoreClockUpdate+0xf0>)
 80012e4:	4a2c      	ldr	r2, [pc, #176]	; (8001398 <SystemCoreClockUpdate+0xf4>)
 80012e6:	601a      	str	r2, [r3, #0]
      break;
 80012e8:	e03d      	b.n	8001366 <SystemCoreClockUpdate+0xc2>
    case 0x04:  /* HSE used as system clock source */
      SystemCoreClock = HSE_VALUE;
 80012ea:	4b2a      	ldr	r3, [pc, #168]	; (8001394 <SystemCoreClockUpdate+0xf0>)
 80012ec:	4a2b      	ldr	r2, [pc, #172]	; (800139c <SystemCoreClockUpdate+0xf8>)
 80012ee:	601a      	str	r2, [r3, #0]
      break;
 80012f0:	e039      	b.n	8001366 <SystemCoreClockUpdate+0xc2>
    case 0x08:  /* PLL used as system clock source */

      /* PLL_VCO = (HSE_VALUE or HSI_VALUE / PLL_M) * PLL_N
         SYSCLK = PLL_VCO / PLL_P
         */    
      pllsource = (RCC->PLLCFGR & RCC_PLLCFGR_PLLSRC) >> 22;
 80012f2:	4b27      	ldr	r3, [pc, #156]	; (8001390 <SystemCoreClockUpdate+0xec>)
 80012f4:	685b      	ldr	r3, [r3, #4]
 80012f6:	0d9b      	lsrs	r3, r3, #22
 80012f8:	f003 0301 	and.w	r3, r3, #1
 80012fc:	60bb      	str	r3, [r7, #8]
      pllm = RCC->PLLCFGR & RCC_PLLCFGR_PLLM;
 80012fe:	4b24      	ldr	r3, [pc, #144]	; (8001390 <SystemCoreClockUpdate+0xec>)
 8001300:	685b      	ldr	r3, [r3, #4]
 8001302:	f003 033f 	and.w	r3, r3, #63	; 0x3f
 8001306:	607b      	str	r3, [r7, #4]
      
      if (pllsource != 0)
 8001308:	68bb      	ldr	r3, [r7, #8]
 800130a:	2b00      	cmp	r3, #0
 800130c:	d00c      	beq.n	8001328 <SystemCoreClockUpdate+0x84>
      {
        /* HSE used as PLL clock source */
        pllvco = (HSE_VALUE / pllm) * ((RCC->PLLCFGR & RCC_PLLCFGR_PLLN) >> 6);
 800130e:	4a23      	ldr	r2, [pc, #140]	; (800139c <SystemCoreClockUpdate+0xf8>)
 8001310:	687b      	ldr	r3, [r7, #4]
 8001312:	fbb2 f3f3 	udiv	r3, r2, r3
 8001316:	4a1e      	ldr	r2, [pc, #120]	; (8001390 <SystemCoreClockUpdate+0xec>)
 8001318:	6852      	ldr	r2, [r2, #4]
 800131a:	0992      	lsrs	r2, r2, #6
 800131c:	f3c2 0208 	ubfx	r2, r2, #0, #9
 8001320:	fb02 f303 	mul.w	r3, r2, r3
 8001324:	617b      	str	r3, [r7, #20]
 8001326:	e00b      	b.n	8001340 <SystemCoreClockUpdate+0x9c>
      }
      else
      {
        /* HSI used as PLL clock source */
        pllvco = (HSI_VALUE / pllm) * ((RCC->PLLCFGR & RCC_PLLCFGR_PLLN) >> 6);
 8001328:	4a1b      	ldr	r2, [pc, #108]	; (8001398 <SystemCoreClockUpdate+0xf4>)
 800132a:	687b      	ldr	r3, [r7, #4]
 800132c:	fbb2 f3f3 	udiv	r3, r2, r3
 8001330:	4a17      	ldr	r2, [pc, #92]	; (8001390 <SystemCoreClockUpdate+0xec>)
 8001332:	6852      	ldr	r2, [r2, #4]
 8001334:	0992      	lsrs	r2, r2, #6
 8001336:	f3c2 0208 	ubfx	r2, r2, #0, #9
 800133a:	fb02 f303 	mul.w	r3, r2, r3
 800133e:	617b      	str	r3, [r7, #20]
      }

      pllp = (((RCC->PLLCFGR & RCC_PLLCFGR_PLLP) >>16) + 1 ) *2;
 8001340:	4b13      	ldr	r3, [pc, #76]	; (8001390 <SystemCoreClockUpdate+0xec>)
 8001342:	685b      	ldr	r3, [r3, #4]
 8001344:	0c1b      	lsrs	r3, r3, #16
 8001346:	f003 0303 	and.w	r3, r3, #3
 800134a:	3301      	adds	r3, #1
 800134c:	005b      	lsls	r3, r3, #1
 800134e:	60fb      	str	r3, [r7, #12]
      SystemCoreClock = pllvco/pllp;
 8001350:	697a      	ldr	r2, [r7, #20]
 8001352:	68fb      	ldr	r3, [r7, #12]
 8001354:	fbb2 f3f3 	udiv	r3, r2, r3
 8001358:	4a0e      	ldr	r2, [pc, #56]	; (8001394 <SystemCoreClockUpdate+0xf0>)
 800135a:	6013      	str	r3, [r2, #0]
      break;
 800135c:	e003      	b.n	8001366 <SystemCoreClockUpdate+0xc2>
    default:
      SystemCoreClock = HSI_VALUE;
 800135e:	4b0d      	ldr	r3, [pc, #52]	; (8001394 <SystemCoreClockUpdate+0xf0>)
 8001360:	4a0d      	ldr	r2, [pc, #52]	; (8001398 <SystemCoreClockUpdate+0xf4>)
 8001362:	601a      	str	r2, [r3, #0]
      break;
 8001364:	bf00      	nop
  }
  /* Compute HCLK frequency --------------------------------------------------*/
  /* Get HCLK prescaler */
  tmp = AHBPrescTable[((RCC->CFGR & RCC_CFGR_HPRE) >> 4)];
 8001366:	4b0a      	ldr	r3, [pc, #40]	; (8001390 <SystemCoreClockUpdate+0xec>)
 8001368:	689b      	ldr	r3, [r3, #8]
 800136a:	091b      	lsrs	r3, r3, #4
 800136c:	f003 030f 	and.w	r3, r3, #15
 8001370:	4a0b      	ldr	r2, [pc, #44]	; (80013a0 <SystemCoreClockUpdate+0xfc>)
 8001372:	5cd3      	ldrb	r3, [r2, r3]
 8001374:	613b      	str	r3, [r7, #16]
  /* HCLK frequency */
  SystemCoreClock >>= tmp;
 8001376:	4b07      	ldr	r3, [pc, #28]	; (8001394 <SystemCoreClockUpdate+0xf0>)
 8001378:	681a      	ldr	r2, [r3, #0]
 800137a:	693b      	ldr	r3, [r7, #16]
 800137c:	fa22 f303 	lsr.w	r3, r2, r3
 8001380:	4a04      	ldr	r2, [pc, #16]	; (8001394 <SystemCoreClockUpdate+0xf0>)
 8001382:	6013      	str	r3, [r2, #0]
}
 8001384:	bf00      	nop
 8001386:	371c      	adds	r7, #28
 8001388:	46bd      	mov	sp, r7
 800138a:	f85d 7b04 	ldr.w	r7, [sp], #4
 800138e:	4770      	bx	lr
 8001390:	40023800 	.word	0x40023800
 8001394:	20000000 	.word	0x20000000
 8001398:	00f42400 	.word	0x00f42400
 800139c:	007a1200 	.word	0x007a1200
 80013a0:	08001b40 	.word	0x08001b40

080013a4 <Reset_Handler>:

  .section .text.Reset_Handler
  .weak Reset_Handler
  .type Reset_Handler, %function
Reset_Handler:
  ldr   r0, =_estack
 80013a4:	480d      	ldr	r0, [pc, #52]	; (80013dc <LoopForever+0x2>)
  mov   sp, r0          /* set stack pointer */
 80013a6:	4685      	mov	sp, r0
/* Call the clock system initialization function.*/
  bl  SystemInit
 80013a8:	f7ff ff6a 	bl	8001280 <SystemInit>

/* Copy the data segment initializers from flash to SRAM */
  ldr r0, =_sdata
 80013ac:	480c      	ldr	r0, [pc, #48]	; (80013e0 <LoopForever+0x6>)
  ldr r1, =_edata
 80013ae:	490d      	ldr	r1, [pc, #52]	; (80013e4 <LoopForever+0xa>)
  ldr r2, =_sidata
 80013b0:	4a0d      	ldr	r2, [pc, #52]	; (80013e8 <LoopForever+0xe>)
  movs r3, #0
 80013b2:	2300      	movs	r3, #0
  b LoopCopyDataInit
 80013b4:	e002      	b.n	80013bc <LoopCopyDataInit>

080013b6 <CopyDataInit>:

CopyDataInit:
  ldr r4, [r2, r3]
 80013b6:	58d4      	ldr	r4, [r2, r3]
  str r4, [r0, r3]
 80013b8:	50c4      	str	r4, [r0, r3]
  adds r3, r3, #4
 80013ba:	3304      	adds	r3, #4

080013bc <LoopCopyDataInit>:

LoopCopyDataInit:
  adds r4, r0, r3
 80013bc:	18c4      	adds	r4, r0, r3
  cmp r4, r1
 80013be:	428c      	cmp	r4, r1
  bcc CopyDataInit
 80013c0:	d3f9      	bcc.n	80013b6 <CopyDataInit>

/* Zero fill the bss segment. */
  ldr r2, =_sbss
 80013c2:	4a0a      	ldr	r2, [pc, #40]	; (80013ec <LoopForever+0x12>)
  ldr r4, =_ebss
 80013c4:	4c0a      	ldr	r4, [pc, #40]	; (80013f0 <LoopForever+0x16>)
  movs r3, #0
 80013c6:	2300      	movs	r3, #0
  b LoopFillZerobss
 80013c8:	e001      	b.n	80013ce <LoopFillZerobss>

080013ca <FillZerobss>:

FillZerobss:
  str  r3, [r2]
 80013ca:	6013      	str	r3, [r2, #0]
  adds r2, r2, #4
 80013cc:	3204      	adds	r2, #4

080013ce <LoopFillZerobss>:

LoopFillZerobss:
  cmp r2, r4
 80013ce:	42a2      	cmp	r2, r4
  bcc FillZerobss
 80013d0:	d3fb      	bcc.n	80013ca <FillZerobss>

/* Call static constructors */
  bl __libc_init_array
 80013d2:	f000 fb77 	bl	8001ac4 <__libc_init_array>
/* Call the application's entry point.*/
  bl main
 80013d6:	f7ff fec3 	bl	8001160 <main>

080013da <LoopForever>:

LoopForever:
  b LoopForever
 80013da:	e7fe      	b.n	80013da <LoopForever>
  ldr   r0, =_estack
 80013dc:	20020000 	.word	0x20020000
  ldr r0, =_sdata
 80013e0:	20000000 	.word	0x20000000
  ldr r1, =_edata
 80013e4:	20000008 	.word	0x20000008
  ldr r2, =_sidata
 80013e8:	08001b58 	.word	0x08001b58
  ldr r2, =_sbss
 80013ec:	20000008 	.word	0x20000008
  ldr r4, =_ebss
 80013f0:	20000080 	.word	0x20000080

080013f4 <ADC_IRQHandler>:
 * @retval : None
*/
  .section .text.Default_Handler,"ax",%progbits
Default_Handler:
Infinite_Loop:
  b Infinite_Loop
 80013f4:	e7fe      	b.n	80013f4 <ADC_IRQHandler>
	...

080013f8 <Delay_ms>:
{
 80013f8:	b480      	push	{r7}
 80013fa:	b085      	sub	sp, #20
 80013fc:	af00      	add	r7, sp, #0
 80013fe:	ed87 0a01 	vstr	s0, [r7, #4]
	unsigned long x =0x29040 * (ms);
 8001402:	edd7 7a01 	vldr	s15, [r7, #4]
 8001406:	ed9f 7a11 	vldr	s14, [pc, #68]	; 800144c <Delay_ms+0x54>
 800140a:	ee67 7a87 	vmul.f32	s15, s15, s14
 800140e:	eefc 7ae7 	vcvt.u32.f32	s15, s15
 8001412:	ee17 3a90 	vmov	r3, s15
 8001416:	60fb      	str	r3, [r7, #12]
	SysTick->LOAD =  x ;
 8001418:	4a0d      	ldr	r2, [pc, #52]	; (8001450 <Delay_ms+0x58>)
 800141a:	68fb      	ldr	r3, [r7, #12]
 800141c:	6053      	str	r3, [r2, #4]
	SysTick->VAL = 0;
 800141e:	4b0c      	ldr	r3, [pc, #48]	; (8001450 <Delay_ms+0x58>)
 8001420:	2200      	movs	r2, #0
 8001422:	609a      	str	r2, [r3, #8]
	SysTick->CTRL |= 1;
 8001424:	4b0a      	ldr	r3, [pc, #40]	; (8001450 <Delay_ms+0x58>)
 8001426:	681b      	ldr	r3, [r3, #0]
 8001428:	4a09      	ldr	r2, [pc, #36]	; (8001450 <Delay_ms+0x58>)
 800142a:	f043 0301 	orr.w	r3, r3, #1
 800142e:	6013      	str	r3, [r2, #0]
	while((SysTick->CTRL & 0x00010000) == 0);
 8001430:	bf00      	nop
 8001432:	4b07      	ldr	r3, [pc, #28]	; (8001450 <Delay_ms+0x58>)
 8001434:	681b      	ldr	r3, [r3, #0]
 8001436:	f403 3380 	and.w	r3, r3, #65536	; 0x10000
 800143a:	2b00      	cmp	r3, #0
 800143c:	d0f9      	beq.n	8001432 <Delay_ms+0x3a>
	return (0UL);                                                     /* Function successful */
 800143e:	2300      	movs	r3, #0
}
 8001440:	4618      	mov	r0, r3
 8001442:	3714      	adds	r7, #20
 8001444:	46bd      	mov	sp, r7
 8001446:	f85d 7b04 	ldr.w	r7, [sp], #4
 800144a:	4770      	bx	lr
 800144c:	48241000 	.word	0x48241000
 8001450:	e000e010 	.word	0xe000e010

08001454 <W5500_Init>:




int W5500_Init(W5500_Config *config)
{
 8001454:	b580      	push	{r7, lr}
 8001456:	b084      	sub	sp, #16
 8001458:	af00      	add	r7, sp, #0
 800145a:	6078      	str	r0, [r7, #4]
	SPI_Init(&config->SPI);
 800145c:	687b      	ldr	r3, [r7, #4]
 800145e:	4618      	mov	r0, r3
 8001460:	f7ff fc72 	bl	8000d48 <SPI_Init>
	SPI_Enable(&config->SPI);
 8001464:	687b      	ldr	r3, [r7, #4]
 8001466:	4618      	mov	r0, r3
 8001468:	f7ff fced 	bl	8000e46 <SPI_Enable>
	SPI_NSS_High(&config->SPI);
 800146c:	687b      	ldr	r3, [r7, #4]
 800146e:	4618      	mov	r0, r3
 8001470:	f7ff fd34 	bl	8000edc <SPI_NSS_High>
	// Read ID
	counter = counter_reset;
 8001474:	4b33      	ldr	r3, [pc, #204]	; (8001544 <W5500_Init+0xf0>)
 8001476:	681b      	ldr	r3, [r3, #0]
 8001478:	4a33      	ldr	r2, [pc, #204]	; (8001548 <W5500_Init+0xf4>)
 800147a:	6013      	str	r3, [r2, #0]
	while(counter < counter_overflow)
 800147c:	e010      	b.n	80014a0 <W5500_Init+0x4c>
	{
		uint8_t ID = W5500_Read_ID(config);
 800147e:	6878      	ldr	r0, [r7, #4]
 8001480:	f000 f998 	bl	80017b4 <W5500_Read_ID>
 8001484:	4603      	mov	r3, r0
 8001486:	73fb      	strb	r3, [r7, #15]
		if(ID == 4) break;
 8001488:	7bfb      	ldrb	r3, [r7, #15]
 800148a:	2b04      	cmp	r3, #4
 800148c:	d00f      	beq.n	80014ae <W5500_Init+0x5a>
		counter ++;
 800148e:	4b2e      	ldr	r3, [pc, #184]	; (8001548 <W5500_Init+0xf4>)
 8001490:	681b      	ldr	r3, [r3, #0]
 8001492:	3301      	adds	r3, #1
 8001494:	4a2c      	ldr	r2, [pc, #176]	; (8001548 <W5500_Init+0xf4>)
 8001496:	6013      	str	r3, [r2, #0]
		Delay_ms(10);
 8001498:	eeb2 0a04 	vmov.f32	s0, #36	; 0x41200000  10.0
 800149c:	f7ff ffac 	bl	80013f8 <Delay_ms>
	while(counter < counter_overflow)
 80014a0:	4b29      	ldr	r3, [pc, #164]	; (8001548 <W5500_Init+0xf4>)
 80014a2:	681a      	ldr	r2, [r3, #0]
 80014a4:	4b29      	ldr	r3, [pc, #164]	; (800154c <W5500_Init+0xf8>)
 80014a6:	681b      	ldr	r3, [r3, #0]
 80014a8:	429a      	cmp	r2, r3
 80014aa:	dbe8      	blt.n	800147e <W5500_Init+0x2a>
 80014ac:	e000      	b.n	80014b0 <W5500_Init+0x5c>
		if(ID == 4) break;
 80014ae:	bf00      	nop
	}
	if(counter >= counter_overflow) return -2;
 80014b0:	4b25      	ldr	r3, [pc, #148]	; (8001548 <W5500_Init+0xf4>)
 80014b2:	681a      	ldr	r2, [r3, #0]
 80014b4:	4b25      	ldr	r3, [pc, #148]	; (800154c <W5500_Init+0xf8>)
 80014b6:	681b      	ldr	r3, [r3, #0]
 80014b8:	429a      	cmp	r2, r3
 80014ba:	db02      	blt.n	80014c2 <W5500_Init+0x6e>
 80014bc:	f06f 0301 	mvn.w	r3, #1
 80014c0:	e03b      	b.n	800153a <W5500_Init+0xe6>
/***************************************************************************************************************/
	// Check Up Link
	counter = counter_reset;
 80014c2:	4b20      	ldr	r3, [pc, #128]	; (8001544 <W5500_Init+0xf0>)
 80014c4:	681b      	ldr	r3, [r3, #0]
 80014c6:	4a20      	ldr	r2, [pc, #128]	; (8001548 <W5500_Init+0xf4>)
 80014c8:	6013      	str	r3, [r2, #0]
	while(counter < counter_overflow)
 80014ca:	e014      	b.n	80014f6 <W5500_Init+0xa2>
	{
		uint8_t Link ;
		Read_1_Byte(config, W5500_Common_Register.PHY_Configuration, W5500_Control_Register.Common_Register, &Link);
 80014cc:	212e      	movs	r1, #46	; 0x2e
 80014ce:	2200      	movs	r2, #0
 80014d0:	f107 030e 	add.w	r3, r7, #14
 80014d4:	6878      	ldr	r0, [r7, #4]
 80014d6:	f000 fabf 	bl	8001a58 <Read_1_Byte>
		if(Link & 0x01) break;
 80014da:	7bbb      	ldrb	r3, [r7, #14]
 80014dc:	f003 0301 	and.w	r3, r3, #1
 80014e0:	2b00      	cmp	r3, #0
 80014e2:	d10f      	bne.n	8001504 <W5500_Init+0xb0>
		counter ++;
 80014e4:	4b18      	ldr	r3, [pc, #96]	; (8001548 <W5500_Init+0xf4>)
 80014e6:	681b      	ldr	r3, [r3, #0]
 80014e8:	3301      	adds	r3, #1
 80014ea:	4a17      	ldr	r2, [pc, #92]	; (8001548 <W5500_Init+0xf4>)
 80014ec:	6013      	str	r3, [r2, #0]
		Delay_ms(10);
 80014ee:	eeb2 0a04 	vmov.f32	s0, #36	; 0x41200000  10.0
 80014f2:	f7ff ff81 	bl	80013f8 <Delay_ms>
	while(counter < counter_overflow)
 80014f6:	4b14      	ldr	r3, [pc, #80]	; (8001548 <W5500_Init+0xf4>)
 80014f8:	681a      	ldr	r2, [r3, #0]
 80014fa:	4b14      	ldr	r3, [pc, #80]	; (800154c <W5500_Init+0xf8>)
 80014fc:	681b      	ldr	r3, [r3, #0]
 80014fe:	429a      	cmp	r2, r3
 8001500:	dbe4      	blt.n	80014cc <W5500_Init+0x78>
 8001502:	e000      	b.n	8001506 <W5500_Init+0xb2>
		if(Link & 0x01) break;
 8001504:	bf00      	nop
	}
	if(counter >= counter_overflow) return -3;
 8001506:	4b10      	ldr	r3, [pc, #64]	; (8001548 <W5500_Init+0xf4>)
 8001508:	681a      	ldr	r2, [r3, #0]
 800150a:	4b10      	ldr	r3, [pc, #64]	; (800154c <W5500_Init+0xf8>)
 800150c:	681b      	ldr	r3, [r3, #0]
 800150e:	429a      	cmp	r2, r3
 8001510:	db02      	blt.n	8001518 <W5500_Init+0xc4>
 8001512:	f06f 0302 	mvn.w	r3, #2
 8001516:	e010      	b.n	800153a <W5500_Init+0xe6>
#if W5500_DEBUG_FLAG
// Print Speed, Status, Mode
#endif
/***************************************************************************************************************/
	counter = counter_reset;
 8001518:	4b0a      	ldr	r3, [pc, #40]	; (8001544 <W5500_Init+0xf0>)
 800151a:	681b      	ldr	r3, [r3, #0]
 800151c:	4a0a      	ldr	r2, [pc, #40]	; (8001548 <W5500_Init+0xf4>)
 800151e:	6013      	str	r3, [r2, #0]
	W5500_Setup_Source_Hardware_Address(config);
 8001520:	6878      	ldr	r0, [r7, #4]
 8001522:	f000 f975 	bl	8001810 <W5500_Setup_Source_Hardware_Address>
	W5500_Setup_Gateway_Address(config);
 8001526:	6878      	ldr	r0, [r7, #4]
 8001528:	f000 f954 	bl	80017d4 <W5500_Setup_Gateway_Address>
	W5500_Setup_Source_IP_Address(config);
 800152c:	6878      	ldr	r0, [r7, #4]
 800152e:	f000 f981 	bl	8001834 <W5500_Setup_Source_IP_Address>
	W5500_Setup_Subnet_Mask_Address(config);
 8001532:	6878      	ldr	r0, [r7, #4]
 8001534:	f000 f95d 	bl	80017f2 <W5500_Setup_Subnet_Mask_Address>





	return 0;
 8001538:	2300      	movs	r3, #0
}
 800153a:	4618      	mov	r0, r3
 800153c:	3710      	adds	r7, #16
 800153e:	46bd      	mov	sp, r7
 8001540:	bd80      	pop	{r7, pc}
 8001542:	bf00      	nop
 8001544:	20000078 	.word	0x20000078
 8001548:	2000007c 	.word	0x2000007c
 800154c:	20000004 	.word	0x20000004

08001550 <W5500_Socket_UDP_Setup>:




uint8_t W5500_Socket_UDP_Setup(W5500_Config *config, W5500_Socket_Config *socket_config)
{
 8001550:	b580      	push	{r7, lr}
 8001552:	b084      	sub	sp, #16
 8001554:	af00      	add	r7, sp, #0
 8001556:	6078      	str	r0, [r7, #4]
 8001558:	6039      	str	r1, [r7, #0]
	if(socket_config->Hardware_Socket_Number == W5500_Hardware_Socket.Socket_1)
 800155a:	683b      	ldr	r3, [r7, #0]
 800155c:	781b      	ldrb	r3, [r3, #0]
 800155e:	2201      	movs	r2, #1
 8001560:	4293      	cmp	r3, r2
 8001562:	d151      	bne.n	8001608 <W5500_Socket_UDP_Setup+0xb8>
	{
		if(socket_config->client_server == W5500_Socket_Type.Client)
 8001564:	683b      	ldr	r3, [r7, #0]
 8001566:	785b      	ldrb	r3, [r3, #1]
 8001568:	2201      	movs	r2, #1
 800156a:	4293      	cmp	r3, r2
 800156c:	d13b      	bne.n	80015e6 <W5500_Socket_UDP_Setup+0x96>
		{
			uint8_t data[2];
			Write_1_Byte(config, W5500_Socket_Register.Sn_TXBUF_SIZE, W5500_Control_Register.Socket_0_Control, 16);
 800156e:	211f      	movs	r1, #31
 8001570:	2201      	movs	r2, #1
 8001572:	2310      	movs	r3, #16
 8001574:	6878      	ldr	r0, [r7, #4]
 8001576:	f000 f96c 	bl	8001852 <Write_1_Byte>
			Write_1_Byte(config, W5500_Socket_Register.Sn_RXBUF_SIZE, W5500_Control_Register.Socket_0_Control, 16);
 800157a:	211e      	movs	r1, #30
 800157c:	2201      	movs	r2, #1
 800157e:	2310      	movs	r3, #16
 8001580:	6878      	ldr	r0, [r7, #4]
 8001582:	f000 f966 	bl	8001852 <Write_1_Byte>


			data[0] = socket_config->Source_Port >> 8;
 8001586:	683b      	ldr	r3, [r7, #0]
 8001588:	889b      	ldrh	r3, [r3, #4]
 800158a:	0a1b      	lsrs	r3, r3, #8
 800158c:	b29b      	uxth	r3, r3
 800158e:	b2db      	uxtb	r3, r3
 8001590:	733b      	strb	r3, [r7, #12]
			data[1] = socket_config->Source_Port;
 8001592:	683b      	ldr	r3, [r7, #0]
 8001594:	889b      	ldrh	r3, [r3, #4]
 8001596:	b2db      	uxtb	r3, r3
 8001598:	737b      	strb	r3, [r7, #13]
			Write_1_Byte(config, W5500_Socket_Register.Sn_MR, W5500_Control_Register.Socket_0_Control, W5500_Socket_Mode.UDP);
 800159a:	2100      	movs	r1, #0
 800159c:	2201      	movs	r2, #1
 800159e:	2302      	movs	r3, #2
 80015a0:	6878      	ldr	r0, [r7, #4]
 80015a2:	f000 f956 	bl	8001852 <Write_1_Byte>
			Write_2_Byte(config, W5500_Socket_Register.Sn_PORT_0, W5500_Control_Register.Socket_0_Control, &data[0]);
 80015a6:	2104      	movs	r1, #4
 80015a8:	2201      	movs	r2, #1
 80015aa:	f107 030c 	add.w	r3, r7, #12
 80015ae:	6878      	ldr	r0, [r7, #4]
 80015b0:	f000 f987 	bl	80018c2 <Write_2_Byte>



			// Set Destination IP
			Write_4_Byte(config, W5500_Socket_Register.Sn_DIPR0, W5500_Control_Register.Socket_0_Control, socket_config->Destination_IP_Address);
 80015b4:	210c      	movs	r1, #12
 80015b6:	2201      	movs	r2, #1
 80015b8:	683b      	ldr	r3, [r7, #0]
 80015ba:	68db      	ldr	r3, [r3, #12]
 80015bc:	6878      	ldr	r0, [r7, #4]
 80015be:	f000 f9bd 	bl	800193c <Write_4_Byte>
			// Set Destinaiton Port
			data[0] = socket_config->Destination_Port >> 8;
 80015c2:	683b      	ldr	r3, [r7, #0]
 80015c4:	8a1b      	ldrh	r3, [r3, #16]
 80015c6:	0a1b      	lsrs	r3, r3, #8
 80015c8:	b29b      	uxth	r3, r3
 80015ca:	b2db      	uxtb	r3, r3
 80015cc:	733b      	strb	r3, [r7, #12]
			data[1] = socket_config->Destination_Port;
 80015ce:	683b      	ldr	r3, [r7, #0]
 80015d0:	8a1b      	ldrh	r3, [r3, #16]
 80015d2:	b2db      	uxtb	r3, r3
 80015d4:	737b      	strb	r3, [r7, #13]
			Write_2_Byte(config, W5500_Socket_Register.Sn_DPORT0, W5500_Control_Register.Socket_0_Control, &data[0]);
 80015d6:	2110      	movs	r1, #16
 80015d8:	2201      	movs	r2, #1
 80015da:	f107 030c 	add.w	r3, r7, #12
 80015de:	6878      	ldr	r0, [r7, #4]
 80015e0:	f000 f96f 	bl	80018c2 <Write_2_Byte>
 80015e4:	e012      	b.n	800160c <W5500_Socket_UDP_Setup+0xbc>
		}
		else if(socket_config->client_server == W5500_Socket_Type.Server)
 80015e6:	683b      	ldr	r3, [r7, #0]
 80015e8:	785b      	ldrb	r3, [r3, #1]
 80015ea:	2202      	movs	r2, #2
 80015ec:	4293      	cmp	r3, r2
 80015ee:	d109      	bne.n	8001604 <W5500_Socket_UDP_Setup+0xb4>
		{
			Write_1_Byte(config, W5500_Socket_Register.Sn_MR, W5500_Control_Register.Socket_0_Control, 0x20 | W5500_Socket_Type.Server);
 80015f0:	2100      	movs	r1, #0
 80015f2:	2201      	movs	r2, #1
 80015f4:	2302      	movs	r3, #2
 80015f6:	f043 0320 	orr.w	r3, r3, #32
 80015fa:	b2db      	uxtb	r3, r3
 80015fc:	6878      	ldr	r0, [r7, #4]
 80015fe:	f000 f928 	bl	8001852 <Write_1_Byte>
 8001602:	e003      	b.n	800160c <W5500_Socket_UDP_Setup+0xbc>
		}
		else
		{
			return -1;
 8001604:	23ff      	movs	r3, #255	; 0xff
 8001606:	e002      	b.n	800160e <W5500_Socket_UDP_Setup+0xbe>
	}


	else
	{
		return -1;
 8001608:	23ff      	movs	r3, #255	; 0xff
 800160a:	e000      	b.n	800160e <W5500_Socket_UDP_Setup+0xbe>
	}

	return 1;
 800160c:	2301      	movs	r3, #1
}
 800160e:	4618      	mov	r0, r3
 8001610:	3710      	adds	r7, #16
 8001612:	46bd      	mov	sp, r7
 8001614:	bd80      	pop	{r7, pc}
	...

08001618 <W5500_Socket_UDP_Send_Data>:


uint8_t W5500_Socket_UDP_Send_Data(W5500_Config *config, W5500_Socket_Config *socket_config)
{
 8001618:	b580      	push	{r7, lr}
 800161a:	b086      	sub	sp, #24
 800161c:	af02      	add	r7, sp, #8
 800161e:	6078      	str	r0, [r7, #4]
 8001620:	6039      	str	r1, [r7, #0]
	if(socket_config->Hardware_Socket_Number == W5500_Hardware_Socket.Socket_1)
 8001622:	683b      	ldr	r3, [r7, #0]
 8001624:	781b      	ldrb	r3, [r3, #0]
 8001626:	2201      	movs	r2, #1
 8001628:	4293      	cmp	r3, r2
 800162a:	f040 80b6 	bne.w	800179a <W5500_Socket_UDP_Send_Data+0x182>
	{
		if(socket_config->client_server == W5500_Socket_Type.Client)
 800162e:	683b      	ldr	r3, [r7, #0]
 8001630:	785b      	ldrb	r3, [r3, #1]
 8001632:	2201      	movs	r2, #1
 8001634:	4293      	cmp	r3, r2
 8001636:	f040 80b2 	bne.w	800179e <W5500_Socket_UDP_Send_Data+0x186>
		{
			// Open Socket
			counter = counter_reset;
 800163a:	4b5b      	ldr	r3, [pc, #364]	; (80017a8 <W5500_Socket_UDP_Send_Data+0x190>)
 800163c:	681b      	ldr	r3, [r3, #0]
 800163e:	4a5b      	ldr	r2, [pc, #364]	; (80017ac <W5500_Socket_UDP_Send_Data+0x194>)
 8001640:	6013      	str	r3, [r2, #0]
			Write_1_Byte(config, W5500_Socket_Register.Sn_CR, W5500_Control_Register.Socket_0_Control, W5500_Socket_Commands.OPEN);
 8001642:	2101      	movs	r1, #1
 8001644:	2201      	movs	r2, #1
 8001646:	2301      	movs	r3, #1
 8001648:	6878      	ldr	r0, [r7, #4]
 800164a:	f000 f902 	bl	8001852 <Write_1_Byte>
			while(counter < counter_overflow)
 800164e:	e015      	b.n	800167c <W5500_Socket_UDP_Send_Data+0x64>
			{
				uint8_t socket_response = 0x01;
 8001650:	2301      	movs	r3, #1
 8001652:	73fb      	strb	r3, [r7, #15]
				Read_1_Byte(config, W5500_Socket_Register.Sn_SR, W5500_Control_Register.Socket_0_Control, &socket_response);
 8001654:	2103      	movs	r1, #3
 8001656:	2201      	movs	r2, #1
 8001658:	f107 030f 	add.w	r3, r7, #15
 800165c:	6878      	ldr	r0, [r7, #4]
 800165e:	f000 f9fb 	bl	8001a58 <Read_1_Byte>
				if(socket_response == W5500_Socket_Status.SOCK_UDP) break;
 8001662:	2222      	movs	r2, #34	; 0x22
 8001664:	7bfb      	ldrb	r3, [r7, #15]
 8001666:	429a      	cmp	r2, r3
 8001668:	d00f      	beq.n	800168a <W5500_Socket_UDP_Send_Data+0x72>
				counter ++;
 800166a:	4b50      	ldr	r3, [pc, #320]	; (80017ac <W5500_Socket_UDP_Send_Data+0x194>)
 800166c:	681b      	ldr	r3, [r3, #0]
 800166e:	3301      	adds	r3, #1
 8001670:	4a4e      	ldr	r2, [pc, #312]	; (80017ac <W5500_Socket_UDP_Send_Data+0x194>)
 8001672:	6013      	str	r3, [r2, #0]
				Delay_ms(10);
 8001674:	eeb2 0a04 	vmov.f32	s0, #36	; 0x41200000  10.0
 8001678:	f7ff febe 	bl	80013f8 <Delay_ms>
			while(counter < counter_overflow)
 800167c:	4b4b      	ldr	r3, [pc, #300]	; (80017ac <W5500_Socket_UDP_Send_Data+0x194>)
 800167e:	681a      	ldr	r2, [r3, #0]
 8001680:	4b4b      	ldr	r3, [pc, #300]	; (80017b0 <W5500_Socket_UDP_Send_Data+0x198>)
 8001682:	681b      	ldr	r3, [r3, #0]
 8001684:	429a      	cmp	r2, r3
 8001686:	dbe3      	blt.n	8001650 <W5500_Socket_UDP_Send_Data+0x38>
 8001688:	e000      	b.n	800168c <W5500_Socket_UDP_Send_Data+0x74>
				if(socket_response == W5500_Socket_Status.SOCK_UDP) break;
 800168a:	bf00      	nop
			}
			if(counter >= counter_overflow) return -1;
 800168c:	4b47      	ldr	r3, [pc, #284]	; (80017ac <W5500_Socket_UDP_Send_Data+0x194>)
 800168e:	681a      	ldr	r2, [r3, #0]
 8001690:	4b47      	ldr	r3, [pc, #284]	; (80017b0 <W5500_Socket_UDP_Send_Data+0x198>)
 8001692:	681b      	ldr	r3, [r3, #0]
 8001694:	429a      	cmp	r2, r3
 8001696:	db01      	blt.n	800169c <W5500_Socket_UDP_Send_Data+0x84>
 8001698:	23ff      	movs	r3, #255	; 0xff
 800169a:	e081      	b.n	80017a0 <W5500_Socket_UDP_Send_Data+0x188>

			Write_1_Byte(config, W5500_Socket_Register.Sn_TX_WR_0, W5500_Control_Register.Socket_0_Control, socket_config->data_len >> 8);
 800169c:	2124      	movs	r1, #36	; 0x24
 800169e:	2201      	movs	r2, #1
 80016a0:	683b      	ldr	r3, [r7, #0]
 80016a2:	8b1b      	ldrh	r3, [r3, #24]
 80016a4:	0a1b      	lsrs	r3, r3, #8
 80016a6:	b29b      	uxth	r3, r3
 80016a8:	b2db      	uxtb	r3, r3
 80016aa:	6878      	ldr	r0, [r7, #4]
 80016ac:	f000 f8d1 	bl	8001852 <Write_1_Byte>
			Write_1_Byte(config, W5500_Socket_Register.Sn_TX_WR_1, W5500_Control_Register.Socket_0_Control, socket_config->data_len);
 80016b0:	2125      	movs	r1, #37	; 0x25
 80016b2:	2201      	movs	r2, #1
 80016b4:	683b      	ldr	r3, [r7, #0]
 80016b6:	8b1b      	ldrh	r3, [r3, #24]
 80016b8:	b2db      	uxtb	r3, r3
 80016ba:	6878      	ldr	r0, [r7, #4]
 80016bc:	f000 f8c9 	bl	8001852 <Write_1_Byte>
			Write_Multiple_Bytes(config, 0x0000, W5500_Control_Register.Socket_0_TX_Buffer, socket_config->data, socket_config->data_len);
 80016c0:	2102      	movs	r1, #2
 80016c2:	683b      	ldr	r3, [r7, #0]
 80016c4:	695a      	ldr	r2, [r3, #20]
 80016c6:	683b      	ldr	r3, [r7, #0]
 80016c8:	8b1b      	ldrh	r3, [r3, #24]
 80016ca:	9300      	str	r3, [sp, #0]
 80016cc:	4613      	mov	r3, r2
 80016ce:	460a      	mov	r2, r1
 80016d0:	2100      	movs	r1, #0
 80016d2:	6878      	ldr	r0, [r7, #4]
 80016d4:	f000 f97f 	bl	80019d6 <Write_Multiple_Bytes>

			counter = counter_reset;
 80016d8:	4b33      	ldr	r3, [pc, #204]	; (80017a8 <W5500_Socket_UDP_Send_Data+0x190>)
 80016da:	681b      	ldr	r3, [r3, #0]
 80016dc:	4a33      	ldr	r2, [pc, #204]	; (80017ac <W5500_Socket_UDP_Send_Data+0x194>)
 80016de:	6013      	str	r3, [r2, #0]
			Write_1_Byte(config, W5500_Socket_Register.Sn_CR, W5500_Control_Register.Socket_0_Control, W5500_Socket_Commands.SEND);
 80016e0:	2101      	movs	r1, #1
 80016e2:	2201      	movs	r2, #1
 80016e4:	2320      	movs	r3, #32
 80016e6:	6878      	ldr	r0, [r7, #4]
 80016e8:	f000 f8b3 	bl	8001852 <Write_1_Byte>
			while(counter < counter_overflow)
 80016ec:	e014      	b.n	8001718 <W5500_Socket_UDP_Send_Data+0x100>
			{
				uint8_t socket_response = 0x01;
 80016ee:	2301      	movs	r3, #1
 80016f0:	73bb      	strb	r3, [r7, #14]
				Read_1_Byte(config, W5500_Socket_Register.Sn_IR, W5500_Control_Register.Socket_0_Control, &socket_response);
 80016f2:	2102      	movs	r1, #2
 80016f4:	2201      	movs	r2, #1
 80016f6:	f107 030e 	add.w	r3, r7, #14
 80016fa:	6878      	ldr	r0, [r7, #4]
 80016fc:	f000 f9ac 	bl	8001a58 <Read_1_Byte>
				if(socket_response == 0x10) break;
 8001700:	7bbb      	ldrb	r3, [r7, #14]
 8001702:	2b10      	cmp	r3, #16
 8001704:	d00f      	beq.n	8001726 <W5500_Socket_UDP_Send_Data+0x10e>
				counter ++;
 8001706:	4b29      	ldr	r3, [pc, #164]	; (80017ac <W5500_Socket_UDP_Send_Data+0x194>)
 8001708:	681b      	ldr	r3, [r3, #0]
 800170a:	3301      	adds	r3, #1
 800170c:	4a27      	ldr	r2, [pc, #156]	; (80017ac <W5500_Socket_UDP_Send_Data+0x194>)
 800170e:	6013      	str	r3, [r2, #0]
				Delay_ms(10);
 8001710:	eeb2 0a04 	vmov.f32	s0, #36	; 0x41200000  10.0
 8001714:	f7ff fe70 	bl	80013f8 <Delay_ms>
			while(counter < counter_overflow)
 8001718:	4b24      	ldr	r3, [pc, #144]	; (80017ac <W5500_Socket_UDP_Send_Data+0x194>)
 800171a:	681a      	ldr	r2, [r3, #0]
 800171c:	4b24      	ldr	r3, [pc, #144]	; (80017b0 <W5500_Socket_UDP_Send_Data+0x198>)
 800171e:	681b      	ldr	r3, [r3, #0]
 8001720:	429a      	cmp	r2, r3
 8001722:	dbe4      	blt.n	80016ee <W5500_Socket_UDP_Send_Data+0xd6>
 8001724:	e000      	b.n	8001728 <W5500_Socket_UDP_Send_Data+0x110>
				if(socket_response == 0x10) break;
 8001726:	bf00      	nop
			}
			if(counter >= counter_overflow) return -1;
 8001728:	4b20      	ldr	r3, [pc, #128]	; (80017ac <W5500_Socket_UDP_Send_Data+0x194>)
 800172a:	681a      	ldr	r2, [r3, #0]
 800172c:	4b20      	ldr	r3, [pc, #128]	; (80017b0 <W5500_Socket_UDP_Send_Data+0x198>)
 800172e:	681b      	ldr	r3, [r3, #0]
 8001730:	429a      	cmp	r2, r3
 8001732:	db01      	blt.n	8001738 <W5500_Socket_UDP_Send_Data+0x120>
 8001734:	23ff      	movs	r3, #255	; 0xff
 8001736:	e033      	b.n	80017a0 <W5500_Socket_UDP_Send_Data+0x188>
			counter = counter_reset;
 8001738:	4b1b      	ldr	r3, [pc, #108]	; (80017a8 <W5500_Socket_UDP_Send_Data+0x190>)
 800173a:	681b      	ldr	r3, [r3, #0]
 800173c:	4a1b      	ldr	r2, [pc, #108]	; (80017ac <W5500_Socket_UDP_Send_Data+0x194>)
 800173e:	6013      	str	r3, [r2, #0]
			Write_1_Byte(config, W5500_Socket_Register.Sn_CR, W5500_Control_Register.Socket_0_Control, W5500_Socket_Commands.CLOSE);
 8001740:	2101      	movs	r1, #1
 8001742:	2201      	movs	r2, #1
 8001744:	2310      	movs	r3, #16
 8001746:	6878      	ldr	r0, [r7, #4]
 8001748:	f000 f883 	bl	8001852 <Write_1_Byte>
			while(counter < counter_overflow)
 800174c:	e015      	b.n	800177a <W5500_Socket_UDP_Send_Data+0x162>
			{
				uint8_t socket_response = 0x01;
 800174e:	2301      	movs	r3, #1
 8001750:	737b      	strb	r3, [r7, #13]
				Read_1_Byte(config, W5500_Socket_Register.Sn_SR, W5500_Control_Register.Socket_0_Control, &socket_response);
 8001752:	2103      	movs	r1, #3
 8001754:	2201      	movs	r2, #1
 8001756:	f107 030d 	add.w	r3, r7, #13
 800175a:	6878      	ldr	r0, [r7, #4]
 800175c:	f000 f97c 	bl	8001a58 <Read_1_Byte>
				if(socket_response == W5500_Socket_Status.SOCK_CLOSED) break;
 8001760:	2200      	movs	r2, #0
 8001762:	7b7b      	ldrb	r3, [r7, #13]
 8001764:	429a      	cmp	r2, r3
 8001766:	d00f      	beq.n	8001788 <W5500_Socket_UDP_Send_Data+0x170>
				counter ++;
 8001768:	4b10      	ldr	r3, [pc, #64]	; (80017ac <W5500_Socket_UDP_Send_Data+0x194>)
 800176a:	681b      	ldr	r3, [r3, #0]
 800176c:	3301      	adds	r3, #1
 800176e:	4a0f      	ldr	r2, [pc, #60]	; (80017ac <W5500_Socket_UDP_Send_Data+0x194>)
 8001770:	6013      	str	r3, [r2, #0]
				Delay_ms(10);
 8001772:	eeb2 0a04 	vmov.f32	s0, #36	; 0x41200000  10.0
 8001776:	f7ff fe3f 	bl	80013f8 <Delay_ms>
			while(counter < counter_overflow)
 800177a:	4b0c      	ldr	r3, [pc, #48]	; (80017ac <W5500_Socket_UDP_Send_Data+0x194>)
 800177c:	681a      	ldr	r2, [r3, #0]
 800177e:	4b0c      	ldr	r3, [pc, #48]	; (80017b0 <W5500_Socket_UDP_Send_Data+0x198>)
 8001780:	681b      	ldr	r3, [r3, #0]
 8001782:	429a      	cmp	r2, r3
 8001784:	dbe3      	blt.n	800174e <W5500_Socket_UDP_Send_Data+0x136>
 8001786:	e000      	b.n	800178a <W5500_Socket_UDP_Send_Data+0x172>
				if(socket_response == W5500_Socket_Status.SOCK_CLOSED) break;
 8001788:	bf00      	nop
			}
			if(counter >= counter_overflow) return -1;
 800178a:	4b08      	ldr	r3, [pc, #32]	; (80017ac <W5500_Socket_UDP_Send_Data+0x194>)
 800178c:	681a      	ldr	r2, [r3, #0]
 800178e:	4b08      	ldr	r3, [pc, #32]	; (80017b0 <W5500_Socket_UDP_Send_Data+0x198>)
 8001790:	681b      	ldr	r3, [r3, #0]
 8001792:	429a      	cmp	r2, r3
 8001794:	db03      	blt.n	800179e <W5500_Socket_UDP_Send_Data+0x186>
 8001796:	23ff      	movs	r3, #255	; 0xff
 8001798:	e002      	b.n	80017a0 <W5500_Socket_UDP_Send_Data+0x188>
		}
	}
	else
	{
		return -1;
 800179a:	23ff      	movs	r3, #255	; 0xff
 800179c:	e000      	b.n	80017a0 <W5500_Socket_UDP_Send_Data+0x188>
	}

	return -1;
 800179e:	23ff      	movs	r3, #255	; 0xff
}
 80017a0:	4618      	mov	r0, r3
 80017a2:	3710      	adds	r7, #16
 80017a4:	46bd      	mov	sp, r7
 80017a6:	bd80      	pop	{r7, pc}
 80017a8:	20000078 	.word	0x20000078
 80017ac:	2000007c 	.word	0x2000007c
 80017b0:	20000004 	.word	0x20000004

080017b4 <W5500_Read_ID>:
#include "W5500_HAL.h"



uint8_t W5500_Read_ID(W5500_Config *config)
{
 80017b4:	b580      	push	{r7, lr}
 80017b6:	b084      	sub	sp, #16
 80017b8:	af00      	add	r7, sp, #0
 80017ba:	6078      	str	r0, [r7, #4]
	uint8_t id;
	Read_1_Byte(config, W5500_Common_Register.Chip_Version, W5500_Control_Register.Common_Register, &id);
 80017bc:	2139      	movs	r1, #57	; 0x39
 80017be:	2200      	movs	r2, #0
 80017c0:	f107 030f 	add.w	r3, r7, #15
 80017c4:	6878      	ldr	r0, [r7, #4]
 80017c6:	f000 f947 	bl	8001a58 <Read_1_Byte>
	return id;
 80017ca:	7bfb      	ldrb	r3, [r7, #15]
}
 80017cc:	4618      	mov	r0, r3
 80017ce:	3710      	adds	r7, #16
 80017d0:	46bd      	mov	sp, r7
 80017d2:	bd80      	pop	{r7, pc}

080017d4 <W5500_Setup_Gateway_Address>:
	Read_1_Byte(config, W5500_Socket_Register.Sn_TTL, W5500_Control_Register.Socket_0_Control, &mode);
	return mode;
}

void W5500_Setup_Gateway_Address(W5500_Config *config)
{
 80017d4:	b580      	push	{r7, lr}
 80017d6:	b082      	sub	sp, #8
 80017d8:	af00      	add	r7, sp, #0
 80017da:	6078      	str	r0, [r7, #4]

	Write_4_Byte(config, W5500_Common_Register.Gateway_Address_0, W5500_Control_Register.Common_Register, config->Gateway_Address);
 80017dc:	2101      	movs	r1, #1
 80017de:	2200      	movs	r2, #0
 80017e0:	687b      	ldr	r3, [r7, #4]
 80017e2:	6a9b      	ldr	r3, [r3, #40]	; 0x28
 80017e4:	6878      	ldr	r0, [r7, #4]
 80017e6:	f000 f8a9 	bl	800193c <Write_4_Byte>
#if W5500_DEBUG_FLAG
	uint32_t gateway_address;
	W5500_Read_Gateway_Address(config, &gateway_address);
#endif
}
 80017ea:	bf00      	nop
 80017ec:	3708      	adds	r7, #8
 80017ee:	46bd      	mov	sp, r7
 80017f0:	bd80      	pop	{r7, pc}

080017f2 <W5500_Setup_Subnet_Mask_Address>:

void W5500_Setup_Subnet_Mask_Address(W5500_Config *config)
{
 80017f2:	b580      	push	{r7, lr}
 80017f4:	b082      	sub	sp, #8
 80017f6:	af00      	add	r7, sp, #0
 80017f8:	6078      	str	r0, [r7, #4]

	Write_4_Byte(config, W5500_Common_Register.Subnet_Mask_Address_0, W5500_Control_Register.Common_Register, config->Subnet_Mask_Address);
 80017fa:	2105      	movs	r1, #5
 80017fc:	2200      	movs	r2, #0
 80017fe:	687b      	ldr	r3, [r7, #4]
 8001800:	6adb      	ldr	r3, [r3, #44]	; 0x2c
 8001802:	6878      	ldr	r0, [r7, #4]
 8001804:	f000 f89a 	bl	800193c <Write_4_Byte>
#if W5500_DEBUG_FLAG
	uint32_t subnetmask_address;
	W5500_Read_Subnet_Mask_Address(config, &subnetmask_address);
#endif
}
 8001808:	bf00      	nop
 800180a:	3708      	adds	r7, #8
 800180c:	46bd      	mov	sp, r7
 800180e:	bd80      	pop	{r7, pc}

08001810 <W5500_Setup_Source_Hardware_Address>:

void W5500_Setup_Source_Hardware_Address(W5500_Config *config)
{
 8001810:	b580      	push	{r7, lr}
 8001812:	b084      	sub	sp, #16
 8001814:	af02      	add	r7, sp, #8
 8001816:	6078      	str	r0, [r7, #4]
	Write_Multiple_Bytes(config, W5500_Common_Register.Source_Hardware_Address_0, W5500_Control_Register.Common_Register, config->Source_Hardware_Address, 6);
 8001818:	2109      	movs	r1, #9
 800181a:	2000      	movs	r0, #0
 800181c:	687b      	ldr	r3, [r7, #4]
 800181e:	6b1b      	ldr	r3, [r3, #48]	; 0x30
 8001820:	2206      	movs	r2, #6
 8001822:	9200      	str	r2, [sp, #0]
 8001824:	4602      	mov	r2, r0
 8001826:	6878      	ldr	r0, [r7, #4]
 8001828:	f000 f8d5 	bl	80019d6 <Write_Multiple_Bytes>
	uint64_t sourcehardwareaddress = (uint64_t)(((uint64_t)data[0] << (8*5)) | ((uint64_t)data[1] << (8*4) | ((uint64_t)data[2] << (8*3)) |
						  ((uint64_t)data[3] << (8*2)) | ((uint64_t)data[4] << (8*1)) | ((uint64_t)data[0] << (8*0))));
#endif


}
 800182c:	bf00      	nop
 800182e:	3708      	adds	r7, #8
 8001830:	46bd      	mov	sp, r7
 8001832:	bd80      	pop	{r7, pc}

08001834 <W5500_Setup_Source_IP_Address>:

void W5500_Setup_Source_IP_Address(W5500_Config *config)
{
 8001834:	b580      	push	{r7, lr}
 8001836:	b082      	sub	sp, #8
 8001838:	af00      	add	r7, sp, #0
 800183a:	6078      	str	r0, [r7, #4]

	Write_4_Byte(config, W5500_Common_Register.Source_IP_Address_0, W5500_Control_Register.Common_Register, config->Source_IP_Address);
 800183c:	210f      	movs	r1, #15
 800183e:	2200      	movs	r2, #0
 8001840:	687b      	ldr	r3, [r7, #4]
 8001842:	6b5b      	ldr	r3, [r3, #52]	; 0x34
 8001844:	6878      	ldr	r0, [r7, #4]
 8001846:	f000 f879 	bl	800193c <Write_4_Byte>
	uint32_t sourceipaddress;
	W5500_Read_Source_IP_Address(config, &sourceipaddress);
#endif


}
 800184a:	bf00      	nop
 800184c:	3708      	adds	r7, #8
 800184e:	46bd      	mov	sp, r7
 8001850:	bd80      	pop	{r7, pc}

08001852 <Write_1_Byte>:

#include "W5500_LL.h"
#include "SPI.h"

void Write_1_Byte(W5500_Config *config,uint16_t offset, uint8_t control_register, uint8_t data)
{
 8001852:	b580      	push	{r7, lr}
 8001854:	b084      	sub	sp, #16
 8001856:	af00      	add	r7, sp, #0
 8001858:	6078      	str	r0, [r7, #4]
 800185a:	4608      	mov	r0, r1
 800185c:	4611      	mov	r1, r2
 800185e:	461a      	mov	r2, r3
 8001860:	4603      	mov	r3, r0
 8001862:	807b      	strh	r3, [r7, #2]
 8001864:	460b      	mov	r3, r1
 8001866:	707b      	strb	r3, [r7, #1]
 8001868:	4613      	mov	r3, r2
 800186a:	703b      	strb	r3, [r7, #0]
	SPI_Config *w5500_spi = &config->SPI;
 800186c:	687b      	ldr	r3, [r7, #4]
 800186e:	60fb      	str	r3, [r7, #12]
	SPI_NSS_Low(w5500_spi);
 8001870:	68f8      	ldr	r0, [r7, #12]
 8001872:	f7ff fb43 	bl	8000efc <SPI_NSS_Low>
	SPI_TRX_Byte(w5500_spi, (0xFF00 & offset)>>8);
 8001876:	887b      	ldrh	r3, [r7, #2]
 8001878:	0a1b      	lsrs	r3, r3, #8
 800187a:	b29b      	uxth	r3, r3
 800187c:	4619      	mov	r1, r3
 800187e:	68f8      	ldr	r0, [r7, #12]
 8001880:	f7ff faf3 	bl	8000e6a <SPI_TRX_Byte>
	SPI_TRX_Byte(w5500_spi, (0x00FF & offset)>>0);
 8001884:	887b      	ldrh	r3, [r7, #2]
 8001886:	b2db      	uxtb	r3, r3
 8001888:	b29b      	uxth	r3, r3
 800188a:	4619      	mov	r1, r3
 800188c:	68f8      	ldr	r0, [r7, #12]
 800188e:	f7ff faec 	bl	8000e6a <SPI_TRX_Byte>
	SPI_TRX_Byte(w5500_spi, (control_register<<3|(1<<2)|(1<<0)));
 8001892:	787b      	ldrb	r3, [r7, #1]
 8001894:	00db      	lsls	r3, r3, #3
 8001896:	b21b      	sxth	r3, r3
 8001898:	f043 0305 	orr.w	r3, r3, #5
 800189c:	b21b      	sxth	r3, r3
 800189e:	b29b      	uxth	r3, r3
 80018a0:	4619      	mov	r1, r3
 80018a2:	68f8      	ldr	r0, [r7, #12]
 80018a4:	f7ff fae1 	bl	8000e6a <SPI_TRX_Byte>
	SPI_TRX_Byte(w5500_spi, data);
 80018a8:	783b      	ldrb	r3, [r7, #0]
 80018aa:	b29b      	uxth	r3, r3
 80018ac:	4619      	mov	r1, r3
 80018ae:	68f8      	ldr	r0, [r7, #12]
 80018b0:	f7ff fadb 	bl	8000e6a <SPI_TRX_Byte>
	SPI_NSS_High(w5500_spi);
 80018b4:	68f8      	ldr	r0, [r7, #12]
 80018b6:	f7ff fb11 	bl	8000edc <SPI_NSS_High>
}
 80018ba:	bf00      	nop
 80018bc:	3710      	adds	r7, #16
 80018be:	46bd      	mov	sp, r7
 80018c0:	bd80      	pop	{r7, pc}

080018c2 <Write_2_Byte>:

void Write_2_Byte(W5500_Config *config,uint16_t offset, uint8_t control_register, uint8_t data[2])
{
 80018c2:	b580      	push	{r7, lr}
 80018c4:	b086      	sub	sp, #24
 80018c6:	af00      	add	r7, sp, #0
 80018c8:	60f8      	str	r0, [r7, #12]
 80018ca:	607b      	str	r3, [r7, #4]
 80018cc:	460b      	mov	r3, r1
 80018ce:	817b      	strh	r3, [r7, #10]
 80018d0:	4613      	mov	r3, r2
 80018d2:	727b      	strb	r3, [r7, #9]
	SPI_Config *w5500_spi = &config->SPI;
 80018d4:	68fb      	ldr	r3, [r7, #12]
 80018d6:	617b      	str	r3, [r7, #20]
	SPI_NSS_Low(w5500_spi);
 80018d8:	6978      	ldr	r0, [r7, #20]
 80018da:	f7ff fb0f 	bl	8000efc <SPI_NSS_Low>
	SPI_TRX_Byte(w5500_spi, (0xFF00 & offset)>>8);
 80018de:	897b      	ldrh	r3, [r7, #10]
 80018e0:	0a1b      	lsrs	r3, r3, #8
 80018e2:	b29b      	uxth	r3, r3
 80018e4:	4619      	mov	r1, r3
 80018e6:	6978      	ldr	r0, [r7, #20]
 80018e8:	f7ff fabf 	bl	8000e6a <SPI_TRX_Byte>
	SPI_TRX_Byte(w5500_spi, (0x00FF & offset)>>0);
 80018ec:	897b      	ldrh	r3, [r7, #10]
 80018ee:	b2db      	uxtb	r3, r3
 80018f0:	b29b      	uxth	r3, r3
 80018f2:	4619      	mov	r1, r3
 80018f4:	6978      	ldr	r0, [r7, #20]
 80018f6:	f7ff fab8 	bl	8000e6a <SPI_TRX_Byte>
	SPI_TRX_Byte(w5500_spi, (control_register<<3|(1<<2)|(2<<0)));
 80018fa:	7a7b      	ldrb	r3, [r7, #9]
 80018fc:	00db      	lsls	r3, r3, #3
 80018fe:	b21b      	sxth	r3, r3
 8001900:	f043 0306 	orr.w	r3, r3, #6
 8001904:	b21b      	sxth	r3, r3
 8001906:	b29b      	uxth	r3, r3
 8001908:	4619      	mov	r1, r3
 800190a:	6978      	ldr	r0, [r7, #20]
 800190c:	f7ff faad 	bl	8000e6a <SPI_TRX_Byte>
	SPI_TRX_Byte(w5500_spi, data[0]);
 8001910:	687b      	ldr	r3, [r7, #4]
 8001912:	781b      	ldrb	r3, [r3, #0]
 8001914:	b29b      	uxth	r3, r3
 8001916:	4619      	mov	r1, r3
 8001918:	6978      	ldr	r0, [r7, #20]
 800191a:	f7ff faa6 	bl	8000e6a <SPI_TRX_Byte>
	SPI_TRX_Byte(w5500_spi, data[1]);
 800191e:	687b      	ldr	r3, [r7, #4]
 8001920:	3301      	adds	r3, #1
 8001922:	781b      	ldrb	r3, [r3, #0]
 8001924:	b29b      	uxth	r3, r3
 8001926:	4619      	mov	r1, r3
 8001928:	6978      	ldr	r0, [r7, #20]
 800192a:	f7ff fa9e 	bl	8000e6a <SPI_TRX_Byte>
	SPI_NSS_High(w5500_spi);
 800192e:	6978      	ldr	r0, [r7, #20]
 8001930:	f7ff fad4 	bl	8000edc <SPI_NSS_High>
}
 8001934:	bf00      	nop
 8001936:	3718      	adds	r7, #24
 8001938:	46bd      	mov	sp, r7
 800193a:	bd80      	pop	{r7, pc}

0800193c <Write_4_Byte>:

void Write_4_Byte(W5500_Config *config,uint16_t offset, uint8_t control_register, uint8_t data[4])
{
 800193c:	b580      	push	{r7, lr}
 800193e:	b086      	sub	sp, #24
 8001940:	af00      	add	r7, sp, #0
 8001942:	60f8      	str	r0, [r7, #12]
 8001944:	607b      	str	r3, [r7, #4]
 8001946:	460b      	mov	r3, r1
 8001948:	817b      	strh	r3, [r7, #10]
 800194a:	4613      	mov	r3, r2
 800194c:	727b      	strb	r3, [r7, #9]
	SPI_Config *w5500_spi = &config->SPI;
 800194e:	68fb      	ldr	r3, [r7, #12]
 8001950:	617b      	str	r3, [r7, #20]
	SPI_NSS_Low(w5500_spi);
 8001952:	6978      	ldr	r0, [r7, #20]
 8001954:	f7ff fad2 	bl	8000efc <SPI_NSS_Low>
	SPI_TRX_Byte(w5500_spi, (0xFF00 & offset)>>8);
 8001958:	897b      	ldrh	r3, [r7, #10]
 800195a:	0a1b      	lsrs	r3, r3, #8
 800195c:	b29b      	uxth	r3, r3
 800195e:	4619      	mov	r1, r3
 8001960:	6978      	ldr	r0, [r7, #20]
 8001962:	f7ff fa82 	bl	8000e6a <SPI_TRX_Byte>
	SPI_TRX_Byte(w5500_spi, (0x00FF & offset)>>0);
 8001966:	897b      	ldrh	r3, [r7, #10]
 8001968:	b2db      	uxtb	r3, r3
 800196a:	b29b      	uxth	r3, r3
 800196c:	4619      	mov	r1, r3
 800196e:	6978      	ldr	r0, [r7, #20]
 8001970:	f7ff fa7b 	bl	8000e6a <SPI_TRX_Byte>
	SPI_TRX_Byte(w5500_spi, (control_register<<3|(1<<2)|(3<<0)));
 8001974:	7a7b      	ldrb	r3, [r7, #9]
 8001976:	00db      	lsls	r3, r3, #3
 8001978:	b21b      	sxth	r3, r3
 800197a:	f043 0307 	orr.w	r3, r3, #7
 800197e:	b21b      	sxth	r3, r3
 8001980:	b29b      	uxth	r3, r3
 8001982:	4619      	mov	r1, r3
 8001984:	6978      	ldr	r0, [r7, #20]
 8001986:	f7ff fa70 	bl	8000e6a <SPI_TRX_Byte>
	SPI_TRX_Byte(w5500_spi, data[0]);
 800198a:	687b      	ldr	r3, [r7, #4]
 800198c:	781b      	ldrb	r3, [r3, #0]
 800198e:	b29b      	uxth	r3, r3
 8001990:	4619      	mov	r1, r3
 8001992:	6978      	ldr	r0, [r7, #20]
 8001994:	f7ff fa69 	bl	8000e6a <SPI_TRX_Byte>
	SPI_TRX_Byte(w5500_spi, data[1]);
 8001998:	687b      	ldr	r3, [r7, #4]
 800199a:	3301      	adds	r3, #1
 800199c:	781b      	ldrb	r3, [r3, #0]
 800199e:	b29b      	uxth	r3, r3
 80019a0:	4619      	mov	r1, r3
 80019a2:	6978      	ldr	r0, [r7, #20]
 80019a4:	f7ff fa61 	bl	8000e6a <SPI_TRX_Byte>
	SPI_TRX_Byte(w5500_spi, data[2]);
 80019a8:	687b      	ldr	r3, [r7, #4]
 80019aa:	3302      	adds	r3, #2
 80019ac:	781b      	ldrb	r3, [r3, #0]
 80019ae:	b29b      	uxth	r3, r3
 80019b0:	4619      	mov	r1, r3
 80019b2:	6978      	ldr	r0, [r7, #20]
 80019b4:	f7ff fa59 	bl	8000e6a <SPI_TRX_Byte>
	SPI_TRX_Byte(w5500_spi, data[3]);
 80019b8:	687b      	ldr	r3, [r7, #4]
 80019ba:	3303      	adds	r3, #3
 80019bc:	781b      	ldrb	r3, [r3, #0]
 80019be:	b29b      	uxth	r3, r3
 80019c0:	4619      	mov	r1, r3
 80019c2:	6978      	ldr	r0, [r7, #20]
 80019c4:	f7ff fa51 	bl	8000e6a <SPI_TRX_Byte>
	SPI_NSS_High(w5500_spi);
 80019c8:	6978      	ldr	r0, [r7, #20]
 80019ca:	f7ff fa87 	bl	8000edc <SPI_NSS_High>
}
 80019ce:	bf00      	nop
 80019d0:	3718      	adds	r7, #24
 80019d2:	46bd      	mov	sp, r7
 80019d4:	bd80      	pop	{r7, pc}

080019d6 <Write_Multiple_Bytes>:

void Write_Multiple_Bytes(W5500_Config *config,uint16_t offset, uint8_t control_register, uint8_t *data, uint16_t length)
{
 80019d6:	b580      	push	{r7, lr}
 80019d8:	b086      	sub	sp, #24
 80019da:	af00      	add	r7, sp, #0
 80019dc:	60f8      	str	r0, [r7, #12]
 80019de:	607b      	str	r3, [r7, #4]
 80019e0:	460b      	mov	r3, r1
 80019e2:	817b      	strh	r3, [r7, #10]
 80019e4:	4613      	mov	r3, r2
 80019e6:	727b      	strb	r3, [r7, #9]
	SPI_Config *w5500_spi = &config->SPI;
 80019e8:	68fb      	ldr	r3, [r7, #12]
 80019ea:	613b      	str	r3, [r7, #16]
	SPI_NSS_Low(w5500_spi);
 80019ec:	6938      	ldr	r0, [r7, #16]
 80019ee:	f7ff fa85 	bl	8000efc <SPI_NSS_Low>
	SPI_TRX_Byte(w5500_spi, (0xFF00 & offset)>>8);
 80019f2:	897b      	ldrh	r3, [r7, #10]
 80019f4:	0a1b      	lsrs	r3, r3, #8
 80019f6:	b29b      	uxth	r3, r3
 80019f8:	4619      	mov	r1, r3
 80019fa:	6938      	ldr	r0, [r7, #16]
 80019fc:	f7ff fa35 	bl	8000e6a <SPI_TRX_Byte>
	SPI_TRX_Byte(w5500_spi, (0x00FF & offset)>>0);
 8001a00:	897b      	ldrh	r3, [r7, #10]
 8001a02:	b2db      	uxtb	r3, r3
 8001a04:	b29b      	uxth	r3, r3
 8001a06:	4619      	mov	r1, r3
 8001a08:	6938      	ldr	r0, [r7, #16]
 8001a0a:	f7ff fa2e 	bl	8000e6a <SPI_TRX_Byte>
	SPI_TRX_Byte(w5500_spi, (control_register<<3|(1<<2)));
 8001a0e:	7a7b      	ldrb	r3, [r7, #9]
 8001a10:	00db      	lsls	r3, r3, #3
 8001a12:	b21b      	sxth	r3, r3
 8001a14:	f043 0304 	orr.w	r3, r3, #4
 8001a18:	b21b      	sxth	r3, r3
 8001a1a:	b29b      	uxth	r3, r3
 8001a1c:	4619      	mov	r1, r3
 8001a1e:	6938      	ldr	r0, [r7, #16]
 8001a20:	f7ff fa23 	bl	8000e6a <SPI_TRX_Byte>
	for(uint16_t i = 0; i < length; i++ )
 8001a24:	2300      	movs	r3, #0
 8001a26:	82fb      	strh	r3, [r7, #22]
 8001a28:	e00b      	b.n	8001a42 <Write_Multiple_Bytes+0x6c>
	{
		SPI_TRX_Byte(w5500_spi, data[i]);
 8001a2a:	8afb      	ldrh	r3, [r7, #22]
 8001a2c:	687a      	ldr	r2, [r7, #4]
 8001a2e:	4413      	add	r3, r2
 8001a30:	781b      	ldrb	r3, [r3, #0]
 8001a32:	b29b      	uxth	r3, r3
 8001a34:	4619      	mov	r1, r3
 8001a36:	6938      	ldr	r0, [r7, #16]
 8001a38:	f7ff fa17 	bl	8000e6a <SPI_TRX_Byte>
	for(uint16_t i = 0; i < length; i++ )
 8001a3c:	8afb      	ldrh	r3, [r7, #22]
 8001a3e:	3301      	adds	r3, #1
 8001a40:	82fb      	strh	r3, [r7, #22]
 8001a42:	8afa      	ldrh	r2, [r7, #22]
 8001a44:	8c3b      	ldrh	r3, [r7, #32]
 8001a46:	429a      	cmp	r2, r3
 8001a48:	d3ef      	bcc.n	8001a2a <Write_Multiple_Bytes+0x54>
	}
	SPI_NSS_High(w5500_spi);
 8001a4a:	6938      	ldr	r0, [r7, #16]
 8001a4c:	f7ff fa46 	bl	8000edc <SPI_NSS_High>

}
 8001a50:	bf00      	nop
 8001a52:	3718      	adds	r7, #24
 8001a54:	46bd      	mov	sp, r7
 8001a56:	bd80      	pop	{r7, pc}

08001a58 <Read_1_Byte>:



void Read_1_Byte(W5500_Config *config,uint16_t offset, uint8_t control_register, uint8_t *data)
{
 8001a58:	b580      	push	{r7, lr}
 8001a5a:	b086      	sub	sp, #24
 8001a5c:	af00      	add	r7, sp, #0
 8001a5e:	60f8      	str	r0, [r7, #12]
 8001a60:	607b      	str	r3, [r7, #4]
 8001a62:	460b      	mov	r3, r1
 8001a64:	817b      	strh	r3, [r7, #10]
 8001a66:	4613      	mov	r3, r2
 8001a68:	727b      	strb	r3, [r7, #9]
	SPI_Config *w5500_spi = &config->SPI;
 8001a6a:	68fb      	ldr	r3, [r7, #12]
 8001a6c:	617b      	str	r3, [r7, #20]
	SPI_NSS_Low(w5500_spi);
 8001a6e:	6978      	ldr	r0, [r7, #20]
 8001a70:	f7ff fa44 	bl	8000efc <SPI_NSS_Low>
	SPI_TRX_Byte(w5500_spi, (0xFF00 & offset)>>8);
 8001a74:	897b      	ldrh	r3, [r7, #10]
 8001a76:	0a1b      	lsrs	r3, r3, #8
 8001a78:	b29b      	uxth	r3, r3
 8001a7a:	4619      	mov	r1, r3
 8001a7c:	6978      	ldr	r0, [r7, #20]
 8001a7e:	f7ff f9f4 	bl	8000e6a <SPI_TRX_Byte>
	SPI_TRX_Byte(w5500_spi, (0x00FF & offset)>>0);
 8001a82:	897b      	ldrh	r3, [r7, #10]
 8001a84:	b2db      	uxtb	r3, r3
 8001a86:	b29b      	uxth	r3, r3
 8001a88:	4619      	mov	r1, r3
 8001a8a:	6978      	ldr	r0, [r7, #20]
 8001a8c:	f7ff f9ed 	bl	8000e6a <SPI_TRX_Byte>
	SPI_TRX_Byte(w5500_spi, (control_register<<3|(0<<2)|(1<<0)));
 8001a90:	7a7b      	ldrb	r3, [r7, #9]
 8001a92:	00db      	lsls	r3, r3, #3
 8001a94:	b21b      	sxth	r3, r3
 8001a96:	f043 0301 	orr.w	r3, r3, #1
 8001a9a:	b21b      	sxth	r3, r3
 8001a9c:	b29b      	uxth	r3, r3
 8001a9e:	4619      	mov	r1, r3
 8001aa0:	6978      	ldr	r0, [r7, #20]
 8001aa2:	f7ff f9e2 	bl	8000e6a <SPI_TRX_Byte>
	*data = SPI_TRX_Byte(w5500_spi, 0xAA);
 8001aa6:	21aa      	movs	r1, #170	; 0xaa
 8001aa8:	6978      	ldr	r0, [r7, #20]
 8001aaa:	f7ff f9de 	bl	8000e6a <SPI_TRX_Byte>
 8001aae:	4603      	mov	r3, r0
 8001ab0:	b2da      	uxtb	r2, r3
 8001ab2:	687b      	ldr	r3, [r7, #4]
 8001ab4:	701a      	strb	r2, [r3, #0]
	SPI_NSS_High(w5500_spi);
 8001ab6:	6978      	ldr	r0, [r7, #20]
 8001ab8:	f7ff fa10 	bl	8000edc <SPI_NSS_High>
}
 8001abc:	bf00      	nop
 8001abe:	3718      	adds	r7, #24
 8001ac0:	46bd      	mov	sp, r7
 8001ac2:	bd80      	pop	{r7, pc}

08001ac4 <__libc_init_array>:
 8001ac4:	b570      	push	{r4, r5, r6, lr}
 8001ac6:	4d0d      	ldr	r5, [pc, #52]	; (8001afc <__libc_init_array+0x38>)
 8001ac8:	4c0d      	ldr	r4, [pc, #52]	; (8001b00 <__libc_init_array+0x3c>)
 8001aca:	1b64      	subs	r4, r4, r5
 8001acc:	10a4      	asrs	r4, r4, #2
 8001ace:	2600      	movs	r6, #0
 8001ad0:	42a6      	cmp	r6, r4
 8001ad2:	d109      	bne.n	8001ae8 <__libc_init_array+0x24>
 8001ad4:	4d0b      	ldr	r5, [pc, #44]	; (8001b04 <__libc_init_array+0x40>)
 8001ad6:	4c0c      	ldr	r4, [pc, #48]	; (8001b08 <__libc_init_array+0x44>)
 8001ad8:	f000 f818 	bl	8001b0c <_init>
 8001adc:	1b64      	subs	r4, r4, r5
 8001ade:	10a4      	asrs	r4, r4, #2
 8001ae0:	2600      	movs	r6, #0
 8001ae2:	42a6      	cmp	r6, r4
 8001ae4:	d105      	bne.n	8001af2 <__libc_init_array+0x2e>
 8001ae6:	bd70      	pop	{r4, r5, r6, pc}
 8001ae8:	f855 3b04 	ldr.w	r3, [r5], #4
 8001aec:	4798      	blx	r3
 8001aee:	3601      	adds	r6, #1
 8001af0:	e7ee      	b.n	8001ad0 <__libc_init_array+0xc>
 8001af2:	f855 3b04 	ldr.w	r3, [r5], #4
 8001af6:	4798      	blx	r3
 8001af8:	3601      	adds	r6, #1
 8001afa:	e7f2      	b.n	8001ae2 <__libc_init_array+0x1e>
 8001afc:	08001b50 	.word	0x08001b50
 8001b00:	08001b50 	.word	0x08001b50
 8001b04:	08001b50 	.word	0x08001b50
 8001b08:	08001b54 	.word	0x08001b54

08001b0c <_init>:
 8001b0c:	b5f8      	push	{r3, r4, r5, r6, r7, lr}
 8001b0e:	bf00      	nop
 8001b10:	bcf8      	pop	{r3, r4, r5, r6, r7}
 8001b12:	bc08      	pop	{r3}
 8001b14:	469e      	mov	lr, r3
 8001b16:	4770      	bx	lr

08001b18 <_fini>:
 8001b18:	b5f8      	push	{r3, r4, r5, r6, r7, lr}
 8001b1a:	bf00      	nop
 8001b1c:	bcf8      	pop	{r3, r4, r5, r6, r7}
 8001b1e:	bc08      	pop	{r3}
 8001b20:	469e      	mov	lr, r3
 8001b22:	4770      	bx	lr
